###############################################################################
#
# IAR ELF Linker V7.20.2.7424/W32 for ARM                 21/Apr/2017  16:24:26
# Copyright 2007-2014 IAR Systems AB.
#
#    Output file  =  G:\code\STM32\Kalman\link_hmd\SYS\EWARM\Debug\Exe\link.out
#    Map file     =  
#        G:\code\STM32\Kalman\link_hmd\SYS\EWARM\Debug\List\link.map
#    Command line =  
#        G:\code\STM32\Kalman\link_hmd\SYS\Drivers\BSP\Components\akm099xx\AKM_Library\libSmartCompass\ak09916_lib.a
#        G:\code\STM32\Kalman\link_hmd\SYS\EWARM\Debug\Obj\AKH_APIs.o
#        G:\code\STM32\Kalman\link_hmd\SYS\EWARM\Debug\Obj\akl_apis.o
#        G:\code\STM32\Kalman\link_hmd\SYS\EWARM\Debug\Obj\akl_lib_func.o
#        G:\code\STM32\Kalman\link_hmd\SYS\EWARM\Debug\Obj\akl_nonos_ext.o
#        G:\code\STM32\Kalman\link_hmd\SYS\EWARM\Debug\Obj\AKM099XX_MAG_driver_HL.o
#        G:\code\STM32\Kalman\link_hmd\SYS\EWARM\Debug\Obj\AKS_APIs.o
#        G:\code\STM32\Kalman\link_hmd\SYS\EWARM\Debug\Obj\aks_common.o
#        G:\code\STM32\Kalman\link_hmd\SYS\EWARM\Debug\Obj\aks_mag_ak099xx.o
#        G:\code\STM32\Kalman\link_hmd\SYS\EWARM\Debug\Obj\ams361ep01_dsi_vdo.o
#        G:\code\STM32\Kalman\link_hmd\SYS\EWARM\Debug\Obj\anx7737.o
#        G:\code\STM32\Kalman\link_hmd\SYS\EWARM\Debug\Obj\anx7737_driver.o
#        G:\code\STM32\Kalman\link_hmd\SYS\EWARM\Debug\Obj\audio_alc4040_driver.o
#        G:\code\STM32\Kalman\link_hmd\SYS\EWARM\Debug\Obj\audio_alc5665_driver.o
#        G:\code\STM32\Kalman\link_hmd\SYS\EWARM\Debug\Obj\BMI160_ACC_GYRO_Driver.o
#        G:\code\STM32\Kalman\link_hmd\SYS\EWARM\Debug\Obj\BMI160_ACC_GYRO_Driver_Api.o
#        G:\code\STM32\Kalman\link_hmd\SYS\EWARM\Debug\Obj\BMI160_ACC_GYRO_Driver_HL.o
#        G:\code\STM32\Kalman\link_hmd\SYS\EWARM\Debug\Obj\bq2589x_charger.o
#        G:\code\STM32\Kalman\link_hmd\SYS\EWARM\Debug\Obj\ccgx_ccg4.o
#        G:\code\STM32\Kalman\link_hmd\SYS\EWARM\Debug\Obj\ccgx_ec.o
#        G:\code\STM32\Kalman\link_hmd\SYS\EWARM\Debug\Obj\ccgx_fw.o
#        G:\code\STM32\Kalman\link_hmd\SYS\EWARM\Debug\Obj\ccgx_fw_io.o
#        G:\code\STM32\Kalman\link_hmd\SYS\EWARM\Debug\Obj\cmsis_os.o
#        G:\code\STM32\Kalman\link_hmd\SYS\EWARM\Debug\Obj\command.o
#        G:\code\STM32\Kalman\link_hmd\SYS\EWARM\Debug\Obj\croutine.o
#        G:\code\STM32\Kalman\link_hmd\SYS\EWARM\Debug\Obj\display_drv.o
#        G:\code\STM32\Kalman\link_hmd\SYS\EWARM\Debug\Obj\epl88051_driver.o
#        G:\code\STM32\Kalman\link_hmd\SYS\EWARM\Debug\Obj\EPL88051_PROXIMITY_driver_HL.o
#        G:\code\STM32\Kalman\link_hmd\SYS\EWARM\Debug\Obj\event_groups.o
#        G:\code\STM32\Kalman\link_hmd\SYS\EWARM\Debug\Obj\flash_drv.o
#        G:\code\STM32\Kalman\link_hmd\SYS\EWARM\Debug\Obj\fota_command.o
#        G:\code\STM32\Kalman\link_hmd\SYS\EWARM\Debug\Obj\freertos.o
#        G:\code\STM32\Kalman\link_hmd\SYS\EWARM\Debug\Obj\freertos_trace.o
#        G:\code\STM32\Kalman\link_hmd\SYS\EWARM\Debug\Obj\fusion.o
#        G:\code\STM32\Kalman\link_hmd\SYS\EWARM\Debug\Obj\gpio.o
#        G:\code\STM32\Kalman\link_hmd\SYS\EWARM\Debug\Obj\gpio_exp.o
#        G:\code\STM32\Kalman\link_hmd\SYS\EWARM\Debug\Obj\gSensor_Calibate.o
#        G:\code\STM32\Kalman\link_hmd\SYS\EWARM\Debug\Obj\gSensor_Command.o
#        G:\code\STM32\Kalman\link_hmd\SYS\EWARM\Debug\Obj\GyroscopeBiasEstimator.o
#        G:\code\STM32\Kalman\link_hmd\SYS\EWARM\Debug\Obj\HeadTracker.o
#        G:\code\STM32\Kalman\link_hmd\SYS\EWARM\Debug\Obj\HeadTransform.o
#        G:\code\STM32\Kalman\link_hmd\SYS\EWARM\Debug\Obj\heap_4.o
#        G:\code\STM32\Kalman\link_hmd\SYS\EWARM\Debug\Obj\hlog_excep.o
#        G:\code\STM32\Kalman\link_hmd\SYS\EWARM\Debug\Obj\hlog_main.o
#        G:\code\STM32\Kalman\link_hmd\SYS\EWARM\Debug\Obj\hlog_test.o
#        G:\code\STM32\Kalman\link_hmd\SYS\EWARM\Debug\Obj\hlog_utils.o
#        G:\code\STM32\Kalman\link_hmd\SYS\EWARM\Debug\Obj\htc_3dof_transfer_service.o
#        G:\code\STM32\Kalman\link_hmd\SYS\EWARM\Debug\Obj\htc_adc_func.o
#        G:\code\STM32\Kalman\link_hmd\SYS\EWARM\Debug\Obj\htc_audio_path_service.o
#        G:\code\STM32\Kalman\link_hmd\SYS\EWARM\Debug\Obj\htc_usb_cdc_data_service.o
#        G:\code\STM32\Kalman\link_hmd\SYS\EWARM\Debug\Obj\key_drv.o
#        G:\code\STM32\Kalman\link_hmd\SYS\EWARM\Debug\Obj\led_drv.o
#        G:\code\STM32\Kalman\link_hmd\SYS\EWARM\Debug\Obj\led_hal.o
#        G:\code\STM32\Kalman\link_hmd\SYS\EWARM\Debug\Obj\leds-lp5562.o
#        G:\code\STM32\Kalman\link_hmd\SYS\EWARM\Debug\Obj\list.o
#        G:\code\STM32\Kalman\link_hmd\SYS\EWARM\Debug\Obj\LowPassFilter.o
#        G:\code\STM32\Kalman\link_hmd\SYS\EWARM\Debug\Obj\LSM6DSM_ACC_GYRO_driver.o
#        G:\code\STM32\Kalman\link_hmd\SYS\EWARM\Debug\Obj\LSM6DSM_ACC_GYRO_driver_HL.o
#        G:\code\STM32\Kalman\link_hmd\SYS\EWARM\Debug\Obj\main.o
#        G:\code\STM32\Kalman\link_hmd\SYS\EWARM\Debug\Obj\mat.o
#        G:\code\STM32\Kalman\link_hmd\SYS\EWARM\Debug\Obj\Matrix.o
#        G:\code\STM32\Kalman\link_hmd\SYS\EWARM\Debug\Obj\Matrix3x3d.o
#        G:\code\STM32\Kalman\link_hmd\SYS\EWARM\Debug\Obj\max17050_fuel_gauge.o
#        G:\code\STM32\Kalman\link_hmd\SYS\EWARM\Debug\Obj\measure.o
#        G:\code\STM32\Kalman\link_hmd\SYS\EWARM\Debug\Obj\misc_data.o
#        G:\code\STM32\Kalman\link_hmd\SYS\EWARM\Debug\Obj\mymath.o
#        G:\code\STM32\Kalman\link_hmd\SYS\EWARM\Debug\Obj\myprintf.o
#        G:\code\STM32\Kalman\link_hmd\SYS\EWARM\Debug\Obj\ncp6924.o
#        G:\code\STM32\Kalman\link_hmd\SYS\EWARM\Debug\Obj\OrientationEKF.o
#        G:\code\STM32\Kalman\link_hmd\SYS\EWARM\Debug\Obj\periph_multiple_drv.o
#        G:\code\STM32\Kalman\link_hmd\SYS\EWARM\Debug\Obj\port.o
#        G:\code\STM32\Kalman\link_hmd\SYS\EWARM\Debug\Obj\portasm.o
#        G:\code\STM32\Kalman\link_hmd\SYS\EWARM\Debug\Obj\PowerManager.o
#        G:\code\STM32\Kalman\link_hmd\SYS\EWARM\Debug\Obj\PowerManager_battery.o
#        G:\code\STM32\Kalman\link_hmd\SYS\EWARM\Debug\Obj\PowerManager_command.o
#        G:\code\STM32\Kalman\link_hmd\SYS\EWARM\Debug\Obj\PowerManager_notify_func.o
#        G:\code\STM32\Kalman\link_hmd\SYS\EWARM\Debug\Obj\PowerManager_peripherals.o
#        G:\code\STM32\Kalman\link_hmd\SYS\EWARM\Debug\Obj\PowerManager_power.o
#        G:\code\STM32\Kalman\link_hmd\SYS\EWARM\Debug\Obj\PowerManager_state_machine.o
#        G:\code\STM32\Kalman\link_hmd\SYS\EWARM\Debug\Obj\PowerManager_system.o
#        G:\code\STM32\Kalman\link_hmd\SYS\EWARM\Debug\Obj\proximity_task.o
#        G:\code\STM32\Kalman\link_hmd\SYS\EWARM\Debug\Obj\ps176_driver.o
#        G:\code\STM32\Kalman\link_hmd\SYS\EWARM\Debug\Obj\px8468wm.o
#        G:\code\STM32\Kalman\link_hmd\SYS\EWARM\Debug\Obj\quat.o
#        G:\code\STM32\Kalman\link_hmd\SYS\EWARM\Debug\Obj\queue.o
#        G:\code\STM32\Kalman\link_hmd\SYS\EWARM\Debug\Obj\rtc_drv.o
#        G:\code\STM32\Kalman\link_hmd\SYS\EWARM\Debug\Obj\rtos_i2c_drv.o
#        G:\code\STM32\Kalman\link_hmd\SYS\EWARM\Debug\Obj\sensor_task.o
#        G:\code\STM32\Kalman\link_hmd\SYS\EWARM\Debug\Obj\SensorTile.o
#        G:\code\STM32\Kalman\link_hmd\SYS\EWARM\Debug\Obj\So3Util.o
#        G:\code\STM32\Kalman\link_hmd\SYS\EWARM\Debug\Obj\startup_stm32f412rx.o
#        G:\code\STM32\Kalman\link_hmd\SYS\EWARM\Debug\Obj\stm32f4xx_hal.o
#        G:\code\STM32\Kalman\link_hmd\SYS\EWARM\Debug\Obj\stm32f4xx_hal_adc.o
#        G:\code\STM32\Kalman\link_hmd\SYS\EWARM\Debug\Obj\stm32f4xx_hal_adc_ex.o
#        G:\code\STM32\Kalman\link_hmd\SYS\EWARM\Debug\Obj\stm32f4xx_hal_cortex.o
#        G:\code\STM32\Kalman\link_hmd\SYS\EWARM\Debug\Obj\stm32f4xx_hal_crc.o
#        G:\code\STM32\Kalman\link_hmd\SYS\EWARM\Debug\Obj\stm32f4xx_hal_dma.o
#        G:\code\STM32\Kalman\link_hmd\SYS\EWARM\Debug\Obj\stm32f4xx_hal_dma_ex.o
#        G:\code\STM32\Kalman\link_hmd\SYS\EWARM\Debug\Obj\stm32f4xx_hal_flash.o
#        G:\code\STM32\Kalman\link_hmd\SYS\EWARM\Debug\Obj\stm32f4xx_hal_flash_ex.o
#        G:\code\STM32\Kalman\link_hmd\SYS\EWARM\Debug\Obj\stm32f4xx_hal_flash_ramfunc.o
#        G:\code\STM32\Kalman\link_hmd\SYS\EWARM\Debug\Obj\stm32f4xx_hal_gpio.o
#        G:\code\STM32\Kalman\link_hmd\SYS\EWARM\Debug\Obj\stm32f4xx_hal_i2c.o
#        G:\code\STM32\Kalman\link_hmd\SYS\EWARM\Debug\Obj\stm32f4xx_hal_i2c_ex.o
#        G:\code\STM32\Kalman\link_hmd\SYS\EWARM\Debug\Obj\stm32f4xx_hal_iwdg.o
#        G:\code\STM32\Kalman\link_hmd\SYS\EWARM\Debug\Obj\stm32f4xx_hal_msp.o
#        G:\code\STM32\Kalman\link_hmd\SYS\EWARM\Debug\Obj\stm32f4xx_hal_pcd.o
#        G:\code\STM32\Kalman\link_hmd\SYS\EWARM\Debug\Obj\stm32f4xx_hal_pcd_ex.o
#        G:\code\STM32\Kalman\link_hmd\SYS\EWARM\Debug\Obj\stm32f4xx_hal_pwr.o
#        G:\code\STM32\Kalman\link_hmd\SYS\EWARM\Debug\Obj\stm32f4xx_hal_pwr_ex.o
#        G:\code\STM32\Kalman\link_hmd\SYS\EWARM\Debug\Obj\stm32f4xx_hal_rcc.o
#        G:\code\STM32\Kalman\link_hmd\SYS\EWARM\Debug\Obj\stm32f4xx_hal_rcc_ex.o
#        G:\code\STM32\Kalman\link_hmd\SYS\EWARM\Debug\Obj\stm32f4xx_hal_rtc.o
#        G:\code\STM32\Kalman\link_hmd\SYS\EWARM\Debug\Obj\stm32f4xx_hal_rtc_ex.o
#        G:\code\STM32\Kalman\link_hmd\SYS\EWARM\Debug\Obj\stm32f4xx_hal_spi.o
#        G:\code\STM32\Kalman\link_hmd\SYS\EWARM\Debug\Obj\stm32f4xx_hal_tim.o
#        G:\code\STM32\Kalman\link_hmd\SYS\EWARM\Debug\Obj\stm32f4xx_hal_tim_ex.o
#        G:\code\STM32\Kalman\link_hmd\SYS\EWARM\Debug\Obj\stm32f4xx_hal_timebase_TIM.o
#        G:\code\STM32\Kalman\link_hmd\SYS\EWARM\Debug\Obj\stm32f4xx_hal_uart.o
#        G:\code\STM32\Kalman\link_hmd\SYS\EWARM\Debug\Obj\stm32f4xx_hal_wwdg.o
#        G:\code\STM32\Kalman\link_hmd\SYS\EWARM\Debug\Obj\stm32f4xx_it.o
#        G:\code\STM32\Kalman\link_hmd\SYS\EWARM\Debug\Obj\stm32f4xx_ll_usb.o
#        G:\code\STM32\Kalman\link_hmd\SYS\EWARM\Debug\Obj\sys_header.o
#        G:\code\STM32\Kalman\link_hmd\SYS\EWARM\Debug\Obj\system_command.o
#        G:\code\STM32\Kalman\link_hmd\SYS\EWARM\Debug\Obj\system_property.o
#        G:\code\STM32\Kalman\link_hmd\SYS\EWARM\Debug\Obj\system_stm32f4xx.o
#        G:\code\STM32\Kalman\link_hmd\SYS\EWARM\Debug\Obj\tasks.o
#        G:\code\STM32\Kalman\link_hmd\SYS\EWARM\Debug\Obj\tc358870xbg_driver.o
#        G:\code\STM32\Kalman\link_hmd\SYS\EWARM\Debug\Obj\timers.o
#        G:\code\STM32\Kalman\link_hmd\SYS\EWARM\Debug\Obj\usart_drv.o
#        G:\code\STM32\Kalman\link_hmd\SYS\EWARM\Debug\Obj\usb_device.o
#        G:\code\STM32\Kalman\link_hmd\SYS\EWARM\Debug\Obj\usbd_comp.o
#        G:\code\STM32\Kalman\link_hmd\SYS\EWARM\Debug\Obj\usbd_comp_if.o
#        G:\code\STM32\Kalman\link_hmd\SYS\EWARM\Debug\Obj\usbd_conf.o
#        G:\code\STM32\Kalman\link_hmd\SYS\EWARM\Debug\Obj\usbd_core.o
#        G:\code\STM32\Kalman\link_hmd\SYS\EWARM\Debug\Obj\usbd_ctlreq.o
#        G:\code\STM32\Kalman\link_hmd\SYS\EWARM\Debug\Obj\usbd_desc.o
#        G:\code\STM32\Kalman\link_hmd\SYS\EWARM\Debug\Obj\usbd_ioreq.o
#        G:\code\STM32\Kalman\link_hmd\SYS\EWARM\Debug\Obj\vec.o
#        G:\code\STM32\Kalman\link_hmd\SYS\EWARM\Debug\Obj\Vector3d.o
#        G:\code\STM32\Kalman\link_hmd\SYS\EWARM\Debug\Obj\x_nucleo_iks01a1_accelero.o
#        G:\code\STM32\Kalman\link_hmd\SYS\EWARM\Debug\Obj\x_nucleo_iks01a1_gyro.o
#        G:\code\STM32\Kalman\link_hmd\SYS\EWARM\Debug\Obj\x_nucleo_iks01a1_magneto.o
#        G:\code\STM32\Kalman\link_hmd\SYS\EWARM\Debug\Obj\x_nucleo_iks01a1_proximity.o
#        G:\code\STM32\Kalman\link_hmd\SYS\EWARM\Debug\Obj\x_pmic.o
#        G:\code\STM32\Kalman\link_hmd\SYS\EWARM\Debug\Obj\YAS537_MAG_driver_HL.o
#        G:\code\STM32\Kalman\link_hmd\SYS\EWARM\Debug\Obj\yas_algo.o
#        G:\code\STM32\Kalman\link_hmd\SYS\EWARM\Debug\Obj\yas_drv.o
#        G:\code\STM32\Kalman\link_hmd\SYS\EWARM\Debug\Obj\yas_mag_calib_min.o
#        G:\code\STM32\Kalman\link_hmd\SYS\EWARM\Debug\Obj\yas_mag_drv-yas537.o
#        G:\code\STM32\Kalman\link_hmd\SYS\EWARM\Debug\Obj\yas_mag_filter.o
#        --redirect _Printf=_PrintfFull --redirect _Scanf=_ScanfFull -o
#        G:\code\STM32\Kalman\link_hmd\SYS\EWARM\Debug\Exe\link.out --map
#        G:\code\STM32\Kalman\link_hmd\SYS\EWARM\Debug\List\link.map --config
#        G:\code\STM32\Kalman\link_hmd\SYS\EWARM/stm32f412rx_flash.icf
#        --semihosting --entry __iar_program_start --vfe
#
###############################################################################

*******************************************************************************
*** RUNTIME MODEL ATTRIBUTES
***

CppFlavor                     = *
__Heap_Handler                = DLMalloc
__SystemLibrary               = DLib
__dlib_dynamic_initialization = normal


*******************************************************************************
*** PLACEMENT SUMMARY
***

"A1":  place at 0x08040000 { ro section .intvec };
"P1":  place in [from 0x08040000 to 0x080bfffb] { ro };
"P2":  place in [from 0x20000000 to 0x2003ffff] { rw, block CSTACK, block HEAP };

  Section             Kind        Address     Size  Object
  -------             ----        -------     ----  ------
"A1":                                        0x1c4
  .intvec             ro code  0x08040000    0x1c4  startup_stm32f412rx.o [1]
                             - 0x080401c4    0x1c4

"P1", part 1 of 2:                           0x670
  .rodata             const    0x080401c4      0x0  zero_init3.o [6]
  .rodata             const    0x080401c4      0x0  lz77_init.o [6]
  Initializer bytes   ro data  0x080401c4    0x670  <for P2 s0>
                             - 0x08040834    0x670

Absolute sections, part 1 of 3:               0x40
  .rodata             const    0x08040fc0     0x10  sys_header.o [1]
  .rodata             const    0x08040fd0     0x10  sys_header.o [1]
  .rodata             const    0x08040fe0     0x10  sys_header.o [1]
  .rodata             const    0x08040ff0     0x10  sys_header.o [1]
                             - 0x08041000     0x40

"P1", part 2 of 2:                         0x426ac
  .text               ro code  0x08041000   0x5ad8  command.o [1]
  .text               ro code  0x08046ad8    0x7cc  gpio.o [1]
  .text               ro code  0x080472a4      0x8  atoi.o [4]
  .text               ro code  0x080472ac     0x4e  strncasecmp.o [4]
  .text               ro code  0x080472fa     0x22  zero_init3.o [6]
  .text               ro code  0x0804731c    0x2e8  stm32f4xx_hal_gpio.o [1]
  .text               ro code  0x08047604    0x19a  led_drv.o [1]
  .text               ro code  0x0804779e     0x1a  xsnprout.o [4]
  .text               ro code  0x080477b8    0x24c  led_hal.o [1]
  .text               ro code  0x08047a04      0x6  ABImemclr4.o [6]
  .text               ro code  0x08047a0a      0xa  xsprout.o [4]
  .text               ro code  0x08047a14    0x1f8  gpio_exp.o [1]
  .text               ro code  0x08047c0c     0x42  strcmp_unaligned.o [6]
  .text               ro code  0x08047c50    0x76c  rtos_i2c_drv.o [1]
  .text               ro code  0x080483bc     0x24  printf.o [4]
  .text               ro code  0x080483e0    0x5a4  hlog_main.o [1]
  .text               ro code  0x08048984     0x34  sprintf.o [4]
  .text               ro code  0x080489b8     0x36  strlen.o [6]
  .text               ro code  0x080489f0    0x810  htc_usb_cdc_data_service.o [1]
  .text               ro code  0x08049200    0x8a8  x_pmic.o [1]
  .text               ro code  0x08049aa8    0x444  ncp6924.o [1]
  .text               ro code  0x08049eec     0x76  ABImemcpy_unaligned.o [6]
  .text               ro code  0x08049f64     0x3a  ABImemset48.o [6]
  .text               ro code  0x08049fa0   0x4230  misc_data.o [1]
  .text               ro code  0x0804e1d0      0x4  strtoul.o [4]
  .text               ro code  0x0804e1d4     0x94  anx7737.o [1]
  .text               ro code  0x0804e268    0x360  htc_audio_path_service.o [1]
  .text               ro code  0x0804e5c8    0xdc4  audio_alc5665_driver.o [1]
  .text               ro code  0x0804f38c     0x44  snprintf.o [4]
  .text               ro code  0x0804f3d0    0x1f2  x_nucleo_iks01a1_magneto.o [1]
  .text               ro code  0x0804f5c4    0xe38  epl88051_driver.o [1]
  .text               ro code  0x080503fc   0x13c8  max17050_fuel_gauge.o [1]
  .text               ro code  0x080517c4    0x208  htc_adc_func.o [1]
  .text               ro code  0x080519cc     0x4e  FltToDbl.o [5]
  .text               ro code  0x08051a1c   0x108c  bq2589x_charger.o [1]
  .text               ro code  0x08052aa8    0x6e0  rtc_drv.o [1]
  .text               ro code  0x08053188   0x1ee8  tc358870xbg_driver.o [1]
  .text               ro code  0x08055070    0x6ac  ams361ep01_dsi_vdo.o [1]
  .text               ro code  0x0805571c    0xd40  tasks.o [1]
  .text               ro code  0x0805645c     0x10  atof.o [5]
  .text               ro code  0x0805646c     0x90  DblToFlt.o [5]
  .text               ro code  0x080564fc    0xa58  ccgx_fw.o [1]
  .text               ro code  0x08056f54     0xaa  ccgx_fw_io.o [1]
  .text               ro code  0x08057000   0x1500  dlmalloc.o [4]
  .text               ro code  0x08058500    0x4d8  cmsis_os.o [1]
  .text               ro code  0x080589d8    0x6fc  queue.o [1]
  .text               ro code  0x080590d4      0x6  ABImemclr.o [6]
  .text               ro code  0x080590dc   0x295c  gSensor_Calibate.o [1]
  .text               ro code  0x0805ba38    0x118  stm32f4xx_hal_cortex.o [1]
  .text               ro code  0x0805bb50    0x1a0  proximity_task.o [1]
  .text               ro code  0x0805bcf0    0xcd4  sensor_task.o [1]
  .text               ro code  0x0805c9c4    0x1bc  periph_multiple_drv.o [1]
  .text               ro code  0x0805cb80    0x454  ccgx_ec.o [1]
  .text               ro code  0x0805cfd4    0x484  PowerManager_system.o [1]
  .text               ro code  0x0805d458    0x3d8  key_drv.o [1]
  .text               ro code  0x0805d830    0x198  xstoul.o [4]
  .text               ro code  0x0805d9c8     0x14  tolower.o [4]
  .text               ro code  0x0805d9dc    0x3f0  leds-lp5562.o [1]
  .text               ro code  0x0805ddcc    0x444  PowerManager_notify_func.o [1]
  .text               ro code  0x0805e210     0x6c  strncpy_unaligned.o [6]
  .text               ro code  0x0805e27c    0x7e2  stm32f4xx_hal_i2c.o [1]
  .text               ro code  0x0805ea60   0x114e  xprintffull.o [4]
  .text               ro code  0x0805fbb0    0x590  hlog_utils.o [1]
  .text               ro code  0x08060140     0x3c  vsnprint.o [4]
  .text               ro code  0x0806017c     0x60  stm32f4xx_hal.o [1]
  .text               ro code  0x080601dc    0x444  main.o [1]
  .text               ro code  0x08060620     0xd8  usbd_comp_if.o [1]
  .text               ro code  0x080606f8    0x5c0  flash_drv.o [1]
  .text               ro code  0x08060cb8     0x66  ABImemset.o [6]
  .text               ro code  0x08060d1e     0x1a  sys_header.o [1]
  .text               ro code  0x08060d38     0x44  strcpy_unaligned.o [6]
  .text               ro code  0x08060d7c    0x250  audio_alc4040_driver.o [1]
  .text               ro code  0x08060fcc    0x132  I64DivMod.o [6]
  .text               ro code  0x08061100    0x34c  timers.o [1]
  .text               ro code  0x0806144c    0x5a6  stm32f4xx_hal_adc.o [1]
  .text               ro code  0x080619f4    0x62a  stm32f4xx_hal_rtc.o [1]
  .text               ro code  0x08062020    0x1ae  stm32f4xx_hal_rtc_ex.o [1]
  .text               ro code  0x080621d0   0x1400  PowerManager_battery.o [1]
  .text               ro code  0x080635d0    0x760  PowerManager_state_machine.o [1]
  .text               ro code  0x08063d30    0x284  PowerManager_power.o [1]
  .text               ro code  0x08063fb4    0x57c  htc_3dof_transfer_service.o [1]
  .text               ro code  0x08064530     0xd8  anx7737_driver.o [1]
  .text               ro code  0x08064608     0xb4  ps176_driver.o [1]
  .text               ro code  0x080646bc     0x88  xstol.o [4]
  .text               ro code  0x08064744    0x1e8  port.o [1]
  .text               ro code  0x0806492c     0x8e  list.o [1]
  .text               ro code  0x080649bc    0x264  freertos_trace.o [1]
  .text               ro code  0x08064c20    0x21c  heap_4.o [1]
  .text               ro code  0x08064e3c    0x168  xstod.o [5]
  .text               ro code  0x08064fa4      0x6  abort.o [4]
  .text               ro code  0x08064fac     0x2c  xgetmemchunk.o [4]
  .text               ro code  0x08064fd8    0x27c  x_nucleo_iks01a1_gyro.o [1]
  .text               ro code  0x08065254    0x2b4  x_nucleo_iks01a1_accelero.o [1]
  .text               ro code  0x08065508    0x118  SensorTile.o [1]
  .text               ro code  0x08065620      0x8  abs.o [4]
  .text               ro code  0x08065628    0x180  DblSub.o [5]
  .text               ro code  0x080657a8    0x1a2  DblMul.o [5]
  .text               ro code  0x0806594c     0xe8  DblAdd.o [5]
  .text               ro code  0x08065a34     0x2e  DblCmpLe.o [5]
  .text               ro code  0x08065a64    0x246  DblDiv.o [5]
  .text               ro code  0x08065cac     0xdc  x_nucleo_iks01a1_proximity.o [1]
  .text               ro code  0x08065d88     0x58  DblToI32.o [5]
  .text               ro code  0x08065de0    0x5e4  BMI160_ACC_GYRO_Driver.o [1]
  .text               ro code  0x080663c4   0x1654  BMI160_ACC_GYRO_Driver_Api.o [1]
  .text               ro code  0x08067a18    0xf04  fusion.o [1]
  .text               ro code  0x0806891c    0x3b4  HeadTracker.o [1]
  .text               ro code  0x08068cd0    0x218  HeadTransform.o [1]
  .text               ro code  0x08068ee8    0x2b6  Matrix.o [1]
  .text               ro code  0x080691a0     0x62  I64ToFlt.o [5]
  .text               ro code  0x08069204     0x44  ccgx_ccg4.o [1]
  .text               ro code  0x08069248     0x28  isxxx.o [4]
  .text               ro code  0x08069270     0x58  memchr.o [6]
  .text               ro code  0x080692c8      0xc  errno.o [4]
  .text               ro code  0x080692d4     0x24  setlocale.o [4]
  .text               ro code  0x080692f8      0xc  xlocale_c.o [4]
  .text               ro code  0x08069304    0x394  stm32f4xx_hal_msp.o [1]
  .text               ro code  0x08069698    0x210  stm32f4xx_hal_rcc.o [1]
  .text               ro code  0x080698a8     0x20  xmbtowc.o [4]
  .text               ro code  0x080698c8     0x16  strchr.o [6]
  .text               ro code  0x080698de      0xa  xmbcurmax.o [4]
  .text               ro code  0x080698e8     0x1a  xwctomb.o [4]
  .text               ro code  0x08069902     0x42  xdnorm.o [5]
  .text               ro code  0x08069944     0x2e  DblCmpGe.o [5]
  .text               ro code  0x08069974    0x114  xdscale.o [5]
  .text               ro code  0x08069a88     0x30  I32ToDbl.o [5]
  .text               ro code  0x08069ab8     0x6c  localeconv.o [4]
  .text               ro code  0x08069b24      0xe  div.o [4]
  .text               ro code  0x08069b34    0x628  stm32f4xx_hal_uart.o [1]
  .text               ro code  0x0806a15c    0x1f8  stm32f4xx_hal_flash.o [1]
  .text               ro code  0x0806a354    0x158  stm32f4xx_hal_flash_ex.o [1]
  .text               ro code  0x0806a4ac     0xa6  stm32f4xx_hal_timebase_TIM.o [1]
  .text               ro code  0x0806a552     0x50  stm32f4xx_hal_iwdg.o [1]
  .text               ro code  0x0806a5a4    0x4fc  usart_drv.o [1]
  .text               ro code  0x0806aaa0    0x494  stm32f4xx_hal_spi.o [1]
  .text               ro code  0x0806af34    0x258  usb_device.o [1]
  .text               ro code  0x0806b18c     0x78  PowerManager.o [1]
  .text               ro code  0x0806b204     0x3c  display_drv.o [1]
  .text               ro code  0x0806b240    0x82c  system_property.o [1]
  .text               ro code  0x0806ba6c    0xae4  system_command.o [1]
  .text               ro code  0x0806c550    0x4a0  PowerManager_command.o [1]
  .text               ro code  0x0806c9f0    0x4a4  stm32f4xx_hal_rcc_ex.o [1]
  .text               ro code  0x0806ce94    0x2f4  usbd_comp.o [1]
  .text               ro code  0x0806d188    0x238  usbd_conf.o [1]
  .text               ro code  0x0806d3c0      0x2  I64DivZer.o [6]
  .text               ro code  0x0806d3c4      0x2  stm32f4xx_hal_adc_ex.o [1]
  .text               ro code  0x0806d3c8    0x420  stm32f4xx_hal_dma.o [1]
  .text               ro code  0x0806d7e8     0xac  stm32f4xx_hal_pwr_ex.o [1]
  .text               ro code  0x0806d894     0x50  stm32f4xx_hal_pwr.o [1]
  CODE                ro code  0x0806d8e4     0xa8  portasm.o [1]
  .text               ro code  0x0806d98c    0x270  stm32f4xx_hal_tim.o [1]
  .text               ro code  0x0806dbfc    0x134  xstopfx.o [4]
  .text               ro code  0x0806dd30    0x1b8  xstoflt.o [4]
  .text               ro code  0x0806dee8    0x200  xdtento.o [5]
  .text               ro code  0x0806e0e8    0x218  xstoxflt.o [4]
  .text               ro code  0x0806e300     0x14  exit.o [7]
  .text               ro code  0x0806e314    0x2e4  BMI160_ACC_GYRO_Driver_HL.o [1]
  .text               ro code  0x0806e5f8    0x53a  mat.o [1]
  .text               ro code  0x0806eb34     0x90  vec.o [1]
  .text               ro code  0x0806ebc4    0x21e  quat.o [1]
  .text               ro code  0x0806ede4    0xa84  mymath.o [1]
  .text               ro code  0x0806f868    0x99e  OrientationEKF.o [1]
  .text               ro code  0x08070208    0x236  Vector3d.o [1]
  .text               ro code  0x08070440    0x262  GyroscopeBiasEstimator.o [1]
  .text               ro code  0x080706a4    0x100  sqrt.o [5]
  .text               ro code  0x080707a4     0x12  sin.o [5]
  .text               ro code  0x080707b6     0x12  cos.o [5]
  .text               ro code  0x080707c8     0x16  xlocale_c.o [4]
  .text               ro code  0x080707de     0x14  xlocale_c.o [4]
  .text               ro code  0x080707f2      0x2  xtls.o [4]
  .text               ro code  0x080707f4     0x60  xencoding_sb.o [4]
  .text               ro code  0x08070854    0x300  usbd_core.o [1]
  .text               ro code  0x08070b54      0x2  PowerManager_peripherals.o [1]
  .runtype            ro code  0x08070b58     0x94  fota_command.o [1]
  .text               ro code  0x08070bec     0x46  strcasecmp.o [4]
  .text               ro code  0x08070c34     0xe0  rand.o [4]
  .text               ro code  0x08070d14     0x20  srand.o [4]
  .text               ro code  0x08070d34     0x60  usbd_ioreq.o [1]
  .text               ro code  0x08070d94    0x3d4  usbd_ctlreq.o [1]
  .text               ro code  0x08071168    0x8a0  stm32f4xx_hal_pcd.o [1]
  .text               ro code  0x08071a08     0x86  stm32f4xx_hal_pcd_ex.o [1]
  .text               ro code  0x08071a90      0x4  stm32f4xx_hal_tim_ex.o [1]
  .text               ro code  0x08071a94     0x20  DblCmpEq.o [5]
  .text               ro code  0x08071ab4     0x56  xdunscal.o [5]
  .text               ro code  0x08071b0a     0x1a  copysignf.o [5]
  .text               ro code  0x08071b24    0x6e8  So3Util.o [1]
  .text               ro code  0x0807220c    0x678  Matrix3x3d.o [1]
  .text               ro code  0x08072884     0x68  fmin.o [5]
  .text               ro code  0x080728ec    0x110  LowPassFilter.o [1]
  .text               ro code  0x080729fc      0xc  iarEdom.o [6]
  .text               ro code  0x08072a08    0x46a  xsin.o [5]
  .text               ro code  0x08072e74    0x164  usbd_desc.o [1]
  .text               ro code  0x08072fd8    0x1a8  fota_command.o [1]
  .text               ro code  0x08073180    0x8f4  stm32f4xx_ll_usb.o [1]
  .text               ro code  0x08073a74    0x120  acos.o [5]
  .text               ro code  0x08073b94    0x130  asin.o [5]
  .text               ro code  0x08073cc4     0x40  xdtest.o [5]
  .text               ro code  0x08073d04    0x168  xquad.o [5]
  .rodata             const    0x08073e6c     0x4c  PowerManager_command.o [1]
  .text               ro code  0x08073eb8    0x1f0  xatan.o [5]
  .text               ro code  0x080740a8     0x7e  xdint.o [5]
  .text               ro code  0x08074128    0x1a8  fmod.o [5]
  .rodata             const    0x080742d0   0x4638  tc358870xbg_driver.o [1]
  .text               ro code  0x08078908   0x11d0  LSM6DSM_ACC_GYRO_driver_HL.o [1]
  .text               ro code  0x08079ad8    0x7da  LSM6DSM_ACC_GYRO_driver.o [1]
  .text               ro code  0x0807a2b4   0x1100  yas_mag_calib_min.o [1]
  .text               ro code  0x0807b3b4    0xea8  yas_mag_drv-yas537.o [1]
  .text               ro code  0x0807c25c    0xcb8  YAS537_MAG_driver_HL.o [1]
  .text               ro code  0x0807cf14    0x138  yas_drv.o [1]
  .text               ro code  0x0807d04c    0x1f8  yas_algo.o [1]
  .text               ro code  0x0807d244    0x29c  yas_mag_filter.o [1]
  .rodata             const    0x0807d4e0    0xbd0  command.o [1]
  .text               ro code  0x0807e0b0    0xae8  AKHDOE.o [3]
  .text               ro code  0x0807eb98     0xfa  AKMDevice.o [3]
  .text               ro code  0x0807ec92     0xc2  AKArithOp.o [3]
  .text               ro code  0x0807ed54    0x628  AKDOECore.o [3]
  .text               ro code  0x0807f37c    0x13c  AKMathLib.o [3]
  .text               ro code  0x0807f4b8    0xaac  AKM099XX_MAG_driver_HL.o [1]
  .text               ro code  0x0807ff64    0x2a4  AKH_APIs.o [1]
  .text               ro code  0x08080208    0x268  akl_lib_func.o [1]
  .text               ro code  0x08080470     0xe0  AKS_APIs.o [1]
  .text               ro code  0x08080550    0x338  akl_apis.o [1]
  .text               ro code  0x08080888    0x3ac  aks_mag_ak099xx.o [1]
  .text               ro code  0x08080c34    0x3f4  measure.o [1]
  .text               ro code  0x08081028     0xd8  akl_nonos_ext.o [1]
  .text               ro code  0x08081100     0x1e  AKVersion.o [3]
  .text               ro code  0x0808111e     0x4e  aks_common.o [1]
  .text               ro code  0x0808116c    0x9d4  AKDecomp.o [3]
  .text               ro code  0x08081b40     0x94  AKHFlucCheck.o [3]
  .text               ro code  0x08081bd4     0xbe  AKDirection6D.o [3]
  .text               ro code  0x08081c94    0x674  gSensor_Command.o [1]
  .text               ro code  0x08082308    0x46c  hlog_excep.o [1]
  .text               ro code  0x08082774     0x2c  vsprintf.o [4]
  .text               ro code  0x080827a0    0x3b8  EPL88051_PROXIMITY_driver_HL.o [1]
  .text               ro code  0x08082b58    0x1c2  lz77_init.o [6]
  .text               ro code  0x08082d1c    0x1bc  stm32f4xx_it.o [1]
  .rodata             const    0x08082ed8    0x16c  PowerManager_state_machine.o [1]
  .rodata             const    0x08083044     0xf0  hlog_main.o [1]
  .rodata             const    0x08083134     0xc0  ams361ep01_dsi_vdo.o [1]
  .rodata             const    0x080831f4     0x9c  led_hal.o [1]
  .rodata             const    0x08083290     0x98  x_pmic.o [1]
  .text               ro code  0x08083328     0x50  system_stm32f4xx.o [1]
  .text               ro code  0x08083378     0x40  myprintf.o [1]
  .text               ro code  0x080833b8     0x28  data_init.o [6]
  .iar.init_table     const    0x080833e0     0x2c  - Linker created -
  .text               ro code  0x0808340c     0x1a  fpinit_M.o [5]
  .text               ro code  0x08083428     0x1a  cmain.o [6]
  .text               ro code  0x08083442      0x4  low_level_init.o [4]
  .text               ro code  0x08083446      0x4  exit.o [4]
  .text               ro code  0x0808344c      0xa  cexit.o [6]
  .rodata             const    0x08083458     0x18  max17050_fuel_gauge.o [1]
  .rodata             const    0x08083470     0x18  system_command.o [1]
  .rodata             const    0x08083488     0x14  bq2589x_charger.o [1]
  .rodata             const    0x080834a0     0x18  system_property.o [1]
  .text               ro code  0x080834b8     0x16  xprout.o [4]
  .text               ro code  0x080834d0      0xc  putchar.o [4]
  .rodata             const    0x080834dc     0x10  fusion.o [1]
  .rodata             const    0x080834ec     0x10  htc_audio_path_service.o [1]
  .rodata             const    0x080834fc     0x10  htc_usb_cdc_data_service.o [1]
  .rodata             const    0x0808350c     0x10  key_drv.o [1]
  .rodata             const    0x0808351c     0x10  periph_multiple_drv.o [1]
  .rodata             const    0x0808352c     0x10  PowerManager_system.o [1]
  .rodata             const    0x0808353c     0x10  proximity_task.o [1]
  .rodata             const    0x0808354c      0xc  htc_3dof_transfer_service.o [1]
  .rodata             const    0x08083558     0x10  sensor_task.o [1]
  .rodata             const    0x08083568     0x10  usart_drv.o [1]
  .text               ro code  0x08083578     0x10  startup_stm32f412rx.o [1]
  .rodata             const    0x08083588      0xc  main.o [1]
  .rodata             const    0x08083594      0xc  rtc_drv.o [1]
  .text               ro code  0x080835a0      0xc  cstartup_M.o [6]
  .rodata             const    0x080835ac      0x8  ccgx_ec.o [1]
  .rodata             const    0x080835b4      0x8  AKMDevice.o [3]
  .text               ro code  0x080835bc      0x4  startup_stm32f412rx.o [1]
  .text               ro code  0x080835c0      0x4  startup_stm32f412rx.o [1]
  .text               ro code  0x080835c4      0x4  startup_stm32f412rx.o [1]
  .text               ro code  0x080835c8      0x4  startup_stm32f412rx.o [1]
  .text               ro code  0x080835cc      0x4  startup_stm32f412rx.o [1]
  .text               ro code  0x080835d0      0x4  startup_stm32f412rx.o [1]
  .text               ro code  0x080835d4      0x4  startup_stm32f412rx.o [1]
  .text               ro code  0x080835d8      0x4  startup_stm32f412rx.o [1]
  .text               ro code  0x080835dc      0x4  startup_stm32f412rx.o [1]
  .text               ro code  0x080835e0      0x4  startup_stm32f412rx.o [1]
  .text               ro code  0x080835e4      0x4  startup_stm32f412rx.o [1]
  .text               ro code  0x080835e8      0x4  startup_stm32f412rx.o [1]
  .text               ro code  0x080835ec      0x4  startup_stm32f412rx.o [1]
  .text               ro code  0x080835f0      0x4  startup_stm32f412rx.o [1]
  .text               ro code  0x080835f4      0x4  startup_stm32f412rx.o [1]
  .text               ro code  0x080835f8      0x4  startup_stm32f412rx.o [1]
  .text               ro code  0x080835fc      0x4  startup_stm32f412rx.o [1]
  .text               ro code  0x08083600      0x4  startup_stm32f412rx.o [1]
  .text               ro code  0x08083604      0x4  startup_stm32f412rx.o [1]
  .text               ro code  0x08083608      0x4  startup_stm32f412rx.o [1]
  .text               ro code  0x0808360c      0x4  startup_stm32f412rx.o [1]
  .text               ro code  0x08083610      0x4  startup_stm32f412rx.o [1]
  .text               ro code  0x08083614      0x4  startup_stm32f412rx.o [1]
  .text               ro code  0x08083618      0x4  startup_stm32f412rx.o [1]
  .text               ro code  0x0808361c      0x4  startup_stm32f412rx.o [1]
  .text               ro code  0x08083620      0x4  startup_stm32f412rx.o [1]
  .text               ro code  0x08083624      0x4  startup_stm32f412rx.o [1]
  .text               ro code  0x08083628      0x4  startup_stm32f412rx.o [1]
  .text               ro code  0x0808362c      0x4  startup_stm32f412rx.o [1]
  .text               ro code  0x08083630      0x4  startup_stm32f412rx.o [1]
  .text               ro code  0x08083634      0x4  startup_stm32f412rx.o [1]
  .text               ro code  0x08083638      0x4  startup_stm32f412rx.o [1]
  .text               ro code  0x0808363c      0x4  startup_stm32f412rx.o [1]
  .text               ro code  0x08083640      0x4  startup_stm32f412rx.o [1]
  .text               ro code  0x08083644      0x4  startup_stm32f412rx.o [1]
  .text               ro code  0x08083648      0x4  startup_stm32f412rx.o [1]
  .text               ro code  0x0808364c      0x4  startup_stm32f412rx.o [1]
  .text               ro code  0x08083650      0x4  startup_stm32f412rx.o [1]
  .text               ro code  0x08083654      0x4  startup_stm32f412rx.o [1]
  .text               ro code  0x08083658      0x4  startup_stm32f412rx.o [1]
  .text               ro code  0x0808365c      0x4  startup_stm32f412rx.o [1]
  .text               ro code  0x08083660      0x4  startup_stm32f412rx.o [1]
  .text               ro code  0x08083664      0x4  startup_stm32f412rx.o [1]
  .text               ro code  0x08083668      0x4  startup_stm32f412rx.o [1]
  .text               ro code  0x0808366c      0x4  startup_stm32f412rx.o [1]
  .text               ro code  0x08083670      0x4  startup_stm32f412rx.o [1]
  .text               ro code  0x08083674      0x4  startup_stm32f412rx.o [1]
  .text               ro code  0x08083678      0x4  startup_stm32f412rx.o [1]
  .text               ro code  0x0808367c      0x4  startup_stm32f412rx.o [1]
  .text               ro code  0x08083680      0x4  startup_stm32f412rx.o [1]
  .text               ro code  0x08083684      0x4  startup_stm32f412rx.o [1]
  .text               ro code  0x08083688      0x4  startup_stm32f412rx.o [1]
  .text               ro code  0x0808368c      0x4  startup_stm32f412rx.o [1]
  .text               ro code  0x08083690      0x4  startup_stm32f412rx.o [1]
  .text               ro code  0x08083694      0x4  startup_stm32f412rx.o [1]
  .text               ro code  0x08083698      0x4  startup_stm32f412rx.o [1]
  .text               ro code  0x0808369c      0x4  startup_stm32f412rx.o [1]
  .text               ro code  0x080836a0      0x4  startup_stm32f412rx.o [1]
  .text               ro code  0x080836a4      0x4  startup_stm32f412rx.o [1]
  .text               ro code  0x080836a8      0x4  startup_stm32f412rx.o [1]
                             - 0x080836ac  0x426ac

Absolute sections, part 2 of 3:               0x14
  .noinit             uninit   0x20002000     0x10  PowerManager_power.o [1]
  .noinit             uninit   0x20002010      0x4  hlog_main.o [1]
                             - 0x20002014     0x14

Absolute sections, part 3 of 3:            0x10000
  .noinit             uninit   0x20002018  0x10000  hlog_main.o [1]
                             - 0x20012018  0x10000

"P2":                                      0x12bb0
  P2 s0                        0x20012018    0xbba  <Init block>
    .data             inited   0x20012018     0x9c  x_pmic.o [1]
    .data             inited   0x200120b4     0x94  LSM6DSM_ACC_GYRO_driver_HL.o [1]
    .data             inited   0x20012148     0x94  max17050_fuel_gauge.o [1]
    __DLIB_PERTHREAD  inited   0x200121dc     0x8c  rand.o [4]
    __DLIB_PERTHREAD  inited   0x20012268     0x88  localeconv.o [4]
    .data             inited   0x200122f0     0x84  epl88051_driver.o [1]
    .data             inited   0x20012374     0x74  hlog_main.o [1]
    __DLIB_PERTHREAD  inited   0x200123e8     0x74  setlocale.o [4]
    .data             inited   0x2001245c     0x68  led_hal.o [1]
    .data             inited   0x200124c4     0x5c  PowerManager_state_machine.o [1]
    .data             inited   0x20012520     0x5c  usbd_comp.o [1]
    .data             inited   0x2001257c     0x5c  usbd_comp.o [1]
    .data             inited   0x200125d8     0x5c  usbd_comp.o [1]
    .data             inited   0x20012634     0x50  AKM099XX_MAG_driver_HL.o [1]
    .data             inited   0x20012684     0x50  YAS537_MAG_driver_HL.o [1]
    .data             inited   0x200126d4     0x4c  htc_usb_cdc_data_service.o [1]
    .data             inited   0x20012720     0x48  ams361ep01_dsi_vdo.o [1]
    .data             inited   0x20012768     0x48  ams361ep01_dsi_vdo.o [1]
    .data             inited   0x200127b0     0x48  BMI160_ACC_GYRO_Driver_Api.o [1]
    .data             inited   0x200127f8     0x48  LSM6DSM_ACC_GYRO_driver_HL.o [1]
    .data             inited   0x20012840     0x44  BMI160_ACC_GYRO_Driver_Api.o [1]
    .data             inited   0x20012884     0x44  LSM6DSM_ACC_GYRO_driver_HL.o [1]
    .data             inited   0x200128c8     0x40  tc358870xbg_driver.o [1]
    .data             inited   0x20012908     0x40  xfiles.o [4]
    .data             inited   0x20012948     0x3c  led_hal.o [1]
    .data             inited   0x20012984     0x3c  usbd_comp.o [1]
    .data             inited   0x200129c0     0x38  PowerManager_state_machine.o [1]
    .data             inited   0x200129f8     0x30  bq2589x_charger.o [1]
    .data             inited   0x20012a28     0x2c  YAS537_MAG_driver_HL.o [1]
    .data             inited   0x20012a54     0x24  max17050_fuel_gauge.o [1]
    .data             inited   0x20012a78     0x1c  EPL88051_PROXIMITY_driver_HL.o [1]
    .data             inited   0x20012a94     0x1c  hlog_main.o [1]
    .data             inited   0x20012ab0     0x1c  usbd_desc.o [1]
    .data             inited   0x20012acc     0x18  ccgx_fw.o [1]
    .data             inited   0x20012ae4     0x18  YAS537_MAG_driver_HL.o [1]
    .data             inited   0x20012afc     0x14  gpio_exp.o [1]
    .data             inited   0x20012b10     0x14  hlog_main.o [1]
    .data             inited   0x20012b24     0x14  ncp6924.o [1]
    .data             inited   0x20012b38     0x14  usbd_desc.o [1]
    .data             inited   0x20012b4c     0x10  leds-lp5562.o [1]
    .data             inited   0x20012b5c     0x10  ncp6924.o [1]
    .data             inited   0x20012b6c     0x10  usbd_comp_if.o [1]
    .data             inited   0x20012b7c      0xc  gpio_exp.o [1]
    .data             inited   0x20012b88      0xc  port.o [1]
    .data             inited   0x20012b94      0xc  usbd_comp.o [1]
    .data             inited   0x20012ba0      0x8  ams361ep01_dsi_vdo.o [1]
    .data             inited   0x20012ba8      0x8  ams361ep01_dsi_vdo.o [1]
    .data             inited   0x20012bb0      0x8  BMI160_ACC_GYRO_Driver_HL.o [1]
    .data             inited   0x20012bb8      0x8  mymath.o [1]
    .data             inited   0x20012bc0      0x4  ams361ep01_dsi_vdo.o [1]
    .data             inited   0x20012bc4      0x4  system_stm32f4xx.o [1]
    .data             inited   0x20012bc8      0x4  usbd_desc.o [1]
    __DLIB_PERTHREAD  inited   0x20012bcc      0x4  errno.o [4]
    .data             inited   0x20012bd0      0x1  led_hal.o [1]
    .data             inited   0x20012bd1      0x1  leds-lp5562.o [1]
  .bss                zero     0x20012bd4   0xc018  heap_4.o [1]
  .bss                zero     0x2001ebf0    0xa58  misc_data.o [1]
  .bss                zero     0x2001f648    0x918  HeadTracker.o [1]
  .bss                zero     0x2001ff60    0x3c8  usbd_conf.o [1]
  .bss                zero     0x20020328    0x3c0  freertos_trace.o [1]
  .bss                zero     0x200206e8    0x25c  usb_device.o [1]
  .bss                zero     0x20020944    0x220  usbd_desc.o [1]
  .bss                zero     0x20020b64    0x200  usbd_comp.o [1]
  .bss                zero     0x20020d64    0x1f0  fusion.o [1]
  .bss                zero     0x20020f54    0x1d8  dlmalloc.o [4]
  .bss                zero     0x2002112c    0x15c  yas_mag_calib_min.o [1]
  .bss                zero     0x20021288    0x100  ccgx_fw.o [1]
  .bss                zero     0x20021388    0x100  usart_drv.o [1]
  .bss                zero     0x20021488     0xfc  yas_mag_filter.o [1]
  .bss                zero     0x20021584     0xc8  main.o [1]
  .bss                zero     0x2002164c     0xc8  So3Util.o [1]
  .bss                zero     0x20021714     0xa0  tasks.o [1]
  .bss                zero     0x200217b4     0x90  yas_mag_drv-yas537.o [1]
  .bss                zero     0x20021844     0x8c  tasks.o [1]
  .bss                zero     0x200218d0     0x84  usart_drv.o [1]
  .bss                zero     0x20021954     0x84  usart_drv.o [1]
  .bss                zero     0x200219d8     0x78  system_command.o [1]
  .bss                zero     0x20021a50     0x74  audio_alc5665_driver.o [1]
  .bss                zero     0x20021ac4     0x74  system_property.o [1]
  .bss                zero     0x20021b38     0x74  usart_drv.o [1]
  .bss                zero     0x20021bac     0x70  htc_usb_cdc_data_service.o [1]
  .bss                zero     0x20021c1c     0x6c  htc_3dof_transfer_service.o [1]
  .bss                zero     0x20021c88     0x64  x_nucleo_iks01a1_accelero.o [1]
  .bss                zero     0x20021cec     0x64  x_nucleo_iks01a1_gyro.o [1]
  .bss                zero     0x20021d50     0x60  bq2589x_charger.o [1]
  .bss                zero     0x20021db0     0x60  main.o [1]
  .bss                zero     0x20021e10     0x60  max17050_fuel_gauge.o [1]
  .bss                zero     0x20021e70     0x5c  yas_algo.o [1]
  .bss                zero     0x20021ecc     0x54  rtos_i2c_drv.o [1]
  .bss                zero     0x20021f20     0x54  rtos_i2c_drv.o [1]
  .bss                zero     0x20021f74     0x50  xfiles.o [4]
  .bss                zero     0x20021fc4     0x48  gSensor_Calibate.o [1]
  .bss                zero     0x2002200c     0x44  sensor_task.o [1]
  .bss                zero     0x20022050     0x44  usbd_comp_if.o [1]
  .bss                zero     0x20022094     0x44  yas_drv.o [1]
  .bss                zero     0x200220d8     0x40  BMI160_ACC_GYRO_Driver_Api.o [1]
  .bss                zero     0x20022118     0x40  freertos_trace.o [1]
  .bss                zero     0x20022158     0x40  queue.o [1]
  .bss                zero     0x20022198     0x40  x_nucleo_iks01a1_magneto.o [1]
  .bss                zero     0x200221d8     0x3c  stm32f4xx_hal_timebase_TIM.o [1]
  .bss                zero     0x20022214     0x38  timers.o [1]
  .bss                zero     0x2002224c     0x34  key_drv.o [1]
  .bss                zero     0x20022280     0x30  rtos_i2c_drv.o [1]
  .bss                zero     0x200222b0     0x24  AKM099XX_MAG_driver_HL.o [1]
  .bss                zero     0x200222d4     0x24  PowerManager_battery.o [1]
  .bss                zero     0x200222f8     0x20  AKM099XX_MAG_driver_HL.o [1]
  .bss                zero     0x20022318     0x20  ccgx_ec.o [1]
  .bss                zero     0x20022338     0x20  sensor_task.o [1]
  .bss                zero     0x20022358     0x20  sensor_task.o [1]
  .bss                zero     0x20022378     0x20  stm32f4xx_hal_flash.o [1]
  .bss                zero     0x20022398     0x20  x_nucleo_iks01a1_proximity.o [1]
  .bss                zero     0x200223b8     0x1c  aks_mag_ak099xx.o [1]
  .bss                zero     0x200223d4     0x1c  BMI160_ACC_GYRO_Driver.o [1]
  .bss                zero     0x200223f0     0x1c  BMI160_ACC_GYRO_Driver_Api.o [1]
  .bss                zero     0x2002240c     0x1c  led_hal.o [1]
  .bss                zero     0x20022428     0x1c  PowerManager_battery.o [1]
  .bss                zero     0x20022444     0x1c  PowerManager_system.o [1]
  .bss                zero     0x20022460     0x1c  tc358870xbg_driver.o [1]
  .bss                zero     0x2002247c     0x1c  YAS537_MAG_driver_HL.o [1]
  .bss                zero     0x20022498     0x18  dlmalloc.o [4]
  .bss                zero     0x200224b0     0x15  PowerManager_system.o [1]
  .bss                zero     0x200224c6      0x2  LSM6DSM_ACC_GYRO_driver_HL.o [1]
  .bss                zero     0x200224c8     0x14  periph_multiple_drv.o [1]
  .bss                zero     0x200224dc     0x14  sensor_task.o [1]
  .bss                zero     0x200224f0     0x10  htc_adc_func.o [1]
  .bss                zero     0x20022500     0x10  PowerManager_power.o [1]
  .bss                zero     0x20022510     0x10  proximity_task.o [1]
  .bss                zero     0x20022520     0x10  rtc_drv.o [1]
  .bss                zero     0x20022530      0xc  command.o [1]
  .bss                zero     0x2002253c      0xc  htc_audio_path_service.o [1]
  .bss                zero     0x20022548      0xc  main.o [1]
  .bss                zero     0x20022554      0xc  misc_data.o [1]
  .bss                zero     0x20022560      0xc  PowerManager_notify_func.o [1]
  .bss                zero     0x2002256c      0x8  audio_alc4040_driver.o [1]
  .bss                zero     0x20022574      0x8  BMI160_ACC_GYRO_Driver_Api.o [1]
  .bss                zero     0x2002257c      0x8  PowerManager_battery.o [1]
  .bss                zero     0x20022584      0x8  PowerManager_battery.o [1]
  .bss                zero     0x2002258c      0x8  PowerManager_command.o [1]
  .bss                zero     0x20022594      0x4  BMI160_ACC_GYRO_Driver.o [1]
  .bss                zero     0x20022598      0x4  flash_drv.o [1]
  .bss                zero     0x2002259c      0x4  gSensor_Calibate.o [1]
  .bss                zero     0x200225a0      0x4  gSensor_Calibate.o [1]
  .bss                zero     0x200225a4      0x4  main.o [1]
  .bss                zero     0x200225a8      0x4  sensor_task.o [1]
  .bss                zero     0x200225ac      0x4  sensor_task.o [1]
  .bss                zero     0x200225b0      0x4  stm32f4xx_hal.o [1]
  .bss                zero     0x200225b4      0x4  usart_drv.o [1]
  .bss                zero     0x200225b8      0x4  xgetmemchunk.o [4]
  .bss                zero     0x200225bc      0x1  BMI160_ACC_GYRO_Driver_Api.o [1]
  .bss                zero     0x200225bd      0x1  HeadTracker.o [1]
  .bss                zero     0x200225be      0x1  myprintf.o [1]
  .bss                zero     0x200225bf      0x1  sensor_task.o [1]
  .bss                zero     0x200225c0      0x1  usbd_comp.o [1]
  .bss                zero     0x200225c1      0x1  usbd_ctlreq.o [1]
  CSTACK                       0x200225c8   0x1400  <Block>
    CSTACK            uninit   0x200225c8   0x1400  <Block tail>
  HEAP                         0x200239c8   0x1200  <Block>
    HEAP              uninit   0x200239c8   0x1200  <Block tail>
                             - 0x20024bc8  0x12bb0


*******************************************************************************
*** INIT TABLE
***

          Address     Size
          -------     ----
Zero (__iar_zero_init3)
    1 destination range, total size 0xf9ee:
          0x20012bd4  0xf9ee

Copy/lz77 (__iar_lz77_init3)
    1 source range, total size 0x670 (54% of destination):
          0x080401c4   0x670
    1 destination range, total size 0xbba:
          0x20012018   0xbba



*******************************************************************************
*** MODULE SUMMARY
***

    Module                          ro code  ro data  rw data  ro data  rw data
                                                                (abs)    (abs)
    ------                          -------  -------  -------  -------  -------
G:\code\STM32\Kalman\link_hmd\SYS\EWARM\Debug\Obj: [1]
    AKH_APIs.o                          676
    AKM099XX_MAG_driver_HL.o          2 732       44      148
    AKS_APIs.o                          224
    BMI160_ACC_GYRO_Driver.o          1 508                32
    BMI160_ACC_GYRO_Driver_Api.o      5 716       76      241
    BMI160_ACC_GYRO_Driver_HL.o         740        4        8
    EPL88051_PROXIMITY_driver_HL.o      952       15       28
    GyroscopeBiasEstimator.o            610
    HeadTracker.o                       948             2 329
    HeadTransform.o                     536
    LSM6DSM_ACC_GYRO_driver.o         2 010
    LSM6DSM_ACC_GYRO_driver_HL.o      4 560      158      290
    LowPassFilter.o                     272
    Matrix.o                            694
    Matrix3x3d.o                      1 656
    OrientationEKF.o                  2 462
    PowerManager.o                      120
    PowerManager_battery.o            5 120                80
    PowerManager_command.o            1 184       76        8
    PowerManager_notify_func.o        1 092                12
    PowerManager_peripherals.o            2
    PowerManager_power.o                644                16                16
    PowerManager_state_machine.o      1 888      445      148
    PowerManager_system.o             1 156       16       49
    SensorTile.o                        280
    So3Util.o                         1 768               200
    Vector3d.o                          566
    YAS537_MAG_driver_HL.o            3 256       81      176
    akl_apis.o                          824
    akl_lib_func.o                      616
    akl_nonos_ext.o                     216
    aks_common.o                         78
    aks_mag_ak099xx.o                   940                28
    ams361ep01_dsi_vdo.o              1 708      282      164
    anx7737.o                           148
    anx7737_driver.o                    216
    audio_alc4040_driver.o              592                 8
    audio_alc5665_driver.o            3 524               116
    bq2589x_charger.o                 4 236       47      144
    ccgx_ccg4.o                          68
    ccgx_ec.o                         1 108        8       32
    ccgx_fw.o                         2 648       13      280
    ccgx_fw_io.o                        170
    cmsis_os.o                        1 240
    command.o                        23 256    3 024       12
    display_drv.o                        60
    epl88051_driver.o                 3 640       73      132
    flash_drv.o                       1 472                 4
    fota_command.o                      572
    freertos_trace.o                    612             1 024
    fusion.o                          3 844       16      496
    gSensor_Calibate.o               10 588                80
    gSensor_Command.o                 1 652
    gpio.o                            1 996
    gpio_exp.o                          504       18       32
    heap_4.o                            540            49 176
    hlog_excep.o                      1 132
    hlog_main.o                       1 444      329      164            65 540
    hlog_utils.o                      1 424
    htc_3dof_transfer_service.o       1 404       12      108
    htc_adc_func.o                      520                16
    htc_audio_path_service.o            864       16       12
    htc_usb_cdc_data_service.o        2 064       58      188
    key_drv.o                           984       16       52
    led_drv.o                           410
    led_hal.o                           588      247      193
    leds-lp5562.o                     1 008        9       17
    list.o                              142
    main.o                            1 092       12      312
    mat.o                             1 338
    max17050_fuel_gauge.o             5 064      126      280
    measure.o                         1 012
    misc_data.o                      16 944             2 660
    mymath.o                          2 692        5        8
    myprintf.o                           64                 1
    ncp6924.o                         1 092       20       36
    periph_multiple_drv.o               444       16       20
    port.o                              488        6       12
    portasm.o                           168
    proximity_task.o                    416       16       16
    ps176_driver.o                      180
    quat.o                              542
    queue.o                           1 788                64
    rtc_drv.o                         1 760       12       16
    rtos_i2c_drv.o                    1 900               216
    sensor_task.o                     3 284       16      161
    startup_stm32f412rx.o               708
    stm32f4xx_hal.o                      96                 4
    stm32f4xx_hal_adc.o               1 446
    stm32f4xx_hal_adc_ex.o                2
    stm32f4xx_hal_cortex.o              280
    stm32f4xx_hal_dma.o               1 056
    stm32f4xx_hal_flash.o               504                32
    stm32f4xx_hal_flash_ex.o            344
    stm32f4xx_hal_gpio.o                744
    stm32f4xx_hal_i2c.o               2 018
    stm32f4xx_hal_iwdg.o                 80
    stm32f4xx_hal_msp.o                 916
    stm32f4xx_hal_pcd.o               2 208
    stm32f4xx_hal_pcd_ex.o              134
    stm32f4xx_hal_pwr.o                  80
    stm32f4xx_hal_pwr_ex.o              172
    stm32f4xx_hal_rcc.o                 528
    stm32f4xx_hal_rcc_ex.o            1 188
    stm32f4xx_hal_rtc.o               1 578
    stm32f4xx_hal_rtc_ex.o              430
    stm32f4xx_hal_spi.o               1 172
    stm32f4xx_hal_tim.o                 624
    stm32f4xx_hal_tim_ex.o                4
    stm32f4xx_hal_timebase_TIM.o        166                60
    stm32f4xx_hal_uart.o              1 576
    stm32f4xx_it.o                      444
    stm32f4xx_ll_usb.o                2 292
    sys_header.o                         26                         64
    system_command.o                  2 788       24      120
    system_property.o                 2 092       24      116
    system_stm32f4xx.o                   80        2        4
    tasks.o                           3 392               300
    tc358870xbg_driver.o              7 912   18 012       92
    timers.o                            844                56
    usart_drv.o                       1 276       16      640
    usb_device.o                        600               604
    usbd_comp.o                         756      191      861
    usbd_comp_if.o                      216        8       84
    usbd_conf.o                         568               968
    usbd_core.o                         768
    usbd_ctlreq.o                       980                 1
    usbd_desc.o                         356       29      596
    usbd_ioreq.o                         96
    vec.o                               144
    x_nucleo_iks01a1_accelero.o         692               100
    x_nucleo_iks01a1_gyro.o             636               100
    x_nucleo_iks01a1_magneto.o          498                64
    x_nucleo_iks01a1_proximity.o        220                32
    x_pmic.o                          2 216      237      156
    yas_algo.o                          504                92
    yas_drv.o                           312                68
    yas_mag_calib_min.o               4 352               348
    yas_mag_drv-yas537.o              3 752               144
    yas_mag_filter.o                    668               252
    ---------------------------------------------------------------------------
    Total:                          220 226   23 855   65 939       64   65 556

command line: [2]
    ---------------------------------------------------------------------------
    Total:

ak09916_lib.a: [3]
    AKArithOp.o                         194
    AKDOECore.o                       1 576
    AKDecomp.o                        2 516
    AKDirection6D.o                     190
    AKHDOE.o                          2 792
    AKHFlucCheck.o                      148
    AKMDevice.o                         250        8
    AKMathLib.o                         316
    AKVersion.o                          30
    ---------------------------------------------------------------------------
    Total:                            8 012        8

dl7M_tlf.a: [4]
    abort.o                               6
    abs.o                                 8
    atoi.o                                8
    div.o                                14
    dlmalloc.o                        5 376               496
    errno.o                              12        2        4
    exit.o                                4
    isxxx.o                              40
    localeconv.o                        108       75      136
    low_level_init.o                      4
    printf.o                             36
    putchar.o                            12
    rand.o                              224       76      140
    setlocale.o                          36       64      116
    snprintf.o                           68
    sprintf.o                            52
    srand.o                              32
    strcasecmp.o                         70
    strncasecmp.o                        78
    strtoul.o                             4
    tolower.o                            20
    vsnprint.o                           60
    vsprintf.o                           44
    xencoding_sb.o                       96
    xfiles.o                                      35      144
    xgetmemchunk.o                       44                 4
    xlocale_c.o                          54
    xmbcurmax.o                          10
    xmbtowc.o                            32
    xprintffull.o                     4 430
    xprout.o                             22
    xsnprout.o                           26
    xsprout.o                            10
    xstoflt.o                           440
    xstol.o                             136
    xstopfx.o                           308
    xstoul.o                            408
    xstoxflt.o                          536
    xtls.o                                2
    xwctomb.o                            26
    ---------------------------------------------------------------------------
    Total:                           12 896      252    1 040

m7M_tlv.a: [5]
    DblAdd.o                            232
    DblCmpEq.o                           32
    DblCmpGe.o                           46
    DblCmpLe.o                           46
    DblDiv.o                            582
    DblMul.o                            418
    DblSub.o                            384
    DblToFlt.o                          144
    DblToI32.o                           88
    FltToDbl.o                           78
    I32ToDbl.o                           48
    I64ToFlt.o                           98
    acos.o                              288
    asin.o                              304
    atof.o                               16
    copysignf.o                          26
    cos.o                                18
    fmin.o                              104
    fmod.o                              424
    fpinit_M.o                           26
    sin.o                                18
    sqrt.o                              256
    xatan.o                             496
    xdint.o                             126
    xdnorm.o                             66
    xdscale.o                           276
    xdtento.o                           512
    xdtest.o                             64
    xdunscal.o                           86
    xquad.o                             360
    xsin.o                            1 130
    xstod.o                             360
    ---------------------------------------------------------------------------
    Total:                            7 152

rt7M_tl.a: [6]
    ABImemclr.o                           6
    ABImemclr4.o                          6
    ABImemcpy_unaligned.o               118
    ABImemset.o                         102
    ABImemset48.o                        58
    I64DivMod.o                         306
    I64DivZer.o                           2
    cexit.o                              10
    cmain.o                              26
    cstartup_M.o                         12
    data_init.o                          40
    iarEdom.o                            12
    lz77_init.o                         450
    memchr.o                             88
    strchr.o                             22
    strcmp_unaligned.o                   66
    strcpy_unaligned.o                   68
    strlen.o                             54
    strncpy_unaligned.o                 108
    zero_init3.o                         34
    ---------------------------------------------------------------------------
    Total:                            1 588

shb_l.a: [7]
    exit.o                               20
    ---------------------------------------------------------------------------
    Total:                               20

    Gaps                                 84        6        7
    Linker created                                45    9 728
-------------------------------------------------------------------------------
    Grand Total:                    249 978   24 166   76 714       64   65 556


*******************************************************************************
*** ENTRY LIST
***

Entry                      Address     Size  Type      Object
-----                      -------     ----  ----      ------
?main                   0x08083429           Code  Gb  cmain.o [6]
ACCELERO_Data           0x20021cc4     0x18  Data  Lc  x_nucleo_iks01a1_accelero.o [1]
ACCELERO_SensorHandle   0x20021c88     0x3c  Data  Lc  x_nucleo_iks01a1_accelero.o [1]
ACC_Calibate            0x0805b5c7    0x120  Code  Gb  gSensor_Calibate.o [1]
ACC_Calibate_6          0x0805a669    0x19e  Code  Gb  gSensor_Calibate.o [1]
ACC_fd_test             0x0805a869    0x424  Code  Gb  gSensor_Calibate.o [1]
ADC_DMAConvCplt         0x0806196d     0x62  Code  Lc  stm32f4xx_hal_adc.o [1]
ADC_DMAError            0x080619dd     0x16  Code  Lc  stm32f4xx_hal_adc.o [1]
ADC_DMAHalfConvCplt     0x080619d1      0xa  Code  Lc  stm32f4xx_hal_adc.o [1]
ADC_IRQHandler          0x08082db7      0x6  Code  Gb  stm32f4xx_it.o [1]
ADC_Init                0x08061867     0xe8  Code  Lc  stm32f4xx_hal_adc.o [1]
AID_ctrl                0x20012ba8      0x8  Data  Lc  ams361ep01_dsi_vdo.o [1]
AKH_DelayMicro          0x0807ffcd      0xe  Code  Gb  AKH_APIs.o [1]
AKH_DelayMilli          0x0807ffdb      0x4  Code  Gb  AKH_APIs.o [1]
AKH_Disable             0x08080025     0x54  Code  Gb  AKH_APIs.o [1]
AKH_Enable              0x08080079     0x3e  Code  Gb  AKH_APIs.o [1]
AKH_Init                0x0807ff65     0x1a  Code  Gb  AKH_APIs.o [1]
AKH_LoadParameter       0x0808000f     0x16  Code  Gb  AKH_APIs.o [1]
AKH_RxData              0x0807ffb1     0x1c  Code  Gb  AKH_APIs.o [1]
AKH_SaveParameter       0x0807ffdf     0x28  Code  Gb  AKH_APIs.o [1]
AKH_TxData              0x0807ff7f     0x32  Code  Gb  AKH_APIs.o [1]
AKL_GetLibraryInfo      0x0808084b     0x2a  Code  Gb  akl_apis.o [1]
AKL_GetNVdataSize       0x0808062f     0x16  Code  Gb  akl_apis.o [1]
AKL_GetParameterSize    0x08080611     0x1e  Code  Gb  akl_apis.o [1]
AKL_GetVector           0x08080775     0xd6  Code  Gb  akl_apis.o [1]
AKL_Init                0x08080645     0x3a  Code  Gb  akl_apis.o [1]
AKL_SetVector           0x0808071f     0x4e  Code  Gb  akl_apis.o [1]
AKL_StartMeasurement    0x0808067f     0x5c  Code  Gb  akl_apis.o [1]
AKL_StopMeasurement     0x080806db     0x44  Code  Gb  akl_apis.o [1]
AKM099XXDrv             0x20012634     0x50  Data  Gb  AKM099XX_MAG_driver_HL.o [1]
AKM099XX_Check_WhoAmI   0x0807f6e5     0x46  Code  Lc  AKM099XX_MAG_driver_HL.o [1]
AKM099XX_Data           0x200221d0      0x4  Data  Lc  x_nucleo_iks01a1_magneto.o [1]
AKM099XX_DeInit         0x0807f62d     0x36  Code  Lc  AKM099XX_MAG_driver_HL.o [1]
AKM099XX_Get_Accuracy   0x0807f9e3      0xa  Code  Lc  AKM099XX_MAG_driver_HL.o [1]
AKM099XX_Get_Axes       0x0807f72b     0x92  Code  Lc  AKM099XX_MAG_driver_HL.o [1]
AKM099XX_Get_AxesRaw    0x0807f7c5     0x78  Code  Lc  AKM099XX_MAG_driver_HL.o [1]
AKM099XX_Get_ODR        0x0807f845     0x68  Code  Lc  AKM099XX_MAG_driver_HL.o [1]
AKM099XX_Get_Sensitivity
                        0x0807f83d      0x8  Code  Lc  AKM099XX_MAG_driver_HL.o [1]
AKM099XX_Get_User_Calibration
                        0x0807f9fb     0x30  Code  Lc  AKM099XX_MAG_driver_HL.o [1]
AKM099XX_Get_WhoAmI     0x0807f6cf     0x16  Code  Lc  AKM099XX_MAG_driver_HL.o [1]
AKM099XX_Init           0x0807f56d     0xc0  Code  Lc  AKM099XX_MAG_driver_HL.o [1]
AKM099XX_Sensor_Disable
                        0x0807f69d     0x24  Code  Lc  AKM099XX_MAG_driver_HL.o [1]
AKM099XX_Sensor_Enable  0x0807f66f     0x28  Code  Lc  AKM099XX_MAG_driver_HL.o [1]
AKM099XX_Sensor_Selftest
                        0x0807f9bd     0x26  Code  Lc  AKM099XX_MAG_driver_HL.o [1]
AKM099XX_Set_Mode       0x0807f97d     0x40  Code  Lc  AKM099XX_MAG_driver_HL.o [1]
AKM099XX_Set_ODR        0x0807f8ad     0x40  Code  Lc  AKM099XX_MAG_driver_HL.o [1]
AKM099XX_Set_ODR_Value  0x0807f8ed     0x86  Code  Lc  AKM099XX_MAG_driver_HL.o [1]
AKM099XX_Set_User_Calibration
                        0x0807f9ed      0xe  Code  Lc  AKM099XX_MAG_driver_HL.o [1]
AKSC_CalcAverage        0x08081783     0xc4  Code  Gb  AKDecomp.o [3]
AKSC_DecompS3           0x08081191    0x31e  Code  Gb  AKDecomp.o [3]
AKSC_GetVersion_DateCode
                        0x0808110d      0x6  Code  Gb  AKVersion.o [3]
AKSC_GetVersion_Device  0x08081119      0x6  Code  Gb  AKVersion.o [3]
AKSC_GetVersion_Major   0x08081101      0x4  Code  Gb  AKVersion.o [3]
AKSC_GetVersion_Minor   0x08081105      0x4  Code  Gb  AKVersion.o [3]
AKSC_GetVersion_Revision
                        0x08081109      0x4  Code  Gb  AKVersion.o [3]
AKSC_GetVersion_Variation
                        0x08081113      0x6  Code  Gb  AKVersion.o [3]
AKSC_HFlucCheck         0x08081b5b     0x30  Code  Gb  AKHFlucCheck.o [3]
AKSC_I16MTranspose      0x0807f409     0x48  Code  Gb  AKMathLib.o [3]
AKSC_InitDecomp         0x0808116d     0x1e  Code  Gb  AKDecomp.o [3]
AKSC_InitHFlucCheck     0x08081b41     0x1a  Code  Gb  AKHFlucCheck.o [3]
AKSC_SetHDOELevel       0x0807e5d9     0x8e  Code  Gb  AKHDOE.o [3]
AKSC_SetLayout          0x08081c47     0x4c  Code  Gb  AKDirection6D.o [3]
AKSC_TransByHbase       0x08081b8b     0x46  Code  Gb  AKHFlucCheck.o [3]
AKSC_VNorm              0x08081bd5     0x72  Code  Gb  AKDirection6D.o [3]
AKSC_abs16              0x0807ed07     0x16  Code  Gb  AKArithOp.o [3]
AKSC_buffer             0x0807eb99     0x4a  Code  Gb  AKMDevice.o [3]
AKSC_cholDc             0x0807f201     0xa8  Code  Gb  AKDOECore.o [3]
AKSC_cholSl             0x0807f2a9     0xd4  Code  Gb  AKDOECore.o [3]
AKSC_div16              0x0807ec93     0x18  Code  Gb  AKArithOp.o [3]
AKSC_div16f             0x0807ed1d     0x38  Code  Gb  AKArithOp.o [3]
AKSC_fitOnPlane         0x0807efd3    0x210  Code  Gb  AKDOECore.o [3]
AKSC_getCoeff           0x0807ed55    0x27e  Code  Gb  AKDOECore.o [3]
AKSC_invSqrt            0x0807f3ad     0x5c  Code  Gb  AKMathLib.o [3]
AKSC_norm16             0x0807ecab     0x30  Code  Gb  AKArithOp.o [3]
AKSC_norm32             0x0807ecdb     0x2c  Code  Gb  AKArithOp.o [3]
AKSC_sqrt32             0x0807f37d     0x30  Code  Gb  AKMathLib.o [3]
AKSC_vectorCalc         0x0807ebe3     0xa4  Code  Gb  AKMDevice.o [3]
AKS_ConvertCoordinate   0x0808113b     0x32  Code  Gb  aks_common.o [1]
AKS_GetData             0x08080507     0x1c  Code  Gb  AKS_APIs.o [1]
AKS_GetDeviceInfo       0x0808049f     0x16  Code  Gb  AKS_APIs.o [1]
AKS_GetMode             0x08080535      0xc  Code  Gb  AKS_APIs.o [1]
AKS_GetWhoami           0x08080541      0xa  Code  Gb  AKS_APIs.o [1]
AKS_Init                0x08080471     0x2e  Code  Gb  AKS_APIs.o [1]
AKS_MyStrcpy            0x0808111f     0x1c  Code  Gb  aks_common.o [1]
AKS_SelfTest            0x08080523     0x12  Code  Gb  AKS_APIs.o [1]
AKS_Start               0x080804b5     0x2a  Code  Gb  AKS_APIs.o [1]
AKS_Stop                0x080804df     0x28  Code  Gb  AKS_APIs.o [1]
APBAHBPrescTable        0x08069898     0x10  Data  Gb  stm32f4xx_hal_rcc.o [1]
AddSubBuffer            0x0807ea0f     0x32  Code  Lc  AKHDOE.o [3]
BMI160_Check_WhoAmI     0x08067083     0x2a  Code  Lc  BMI160_ACC_GYRO_Driver_Api.o [1]
BMI160_Combo_Data       0x20022574      0x8  Data  Gb  BMI160_ACC_GYRO_Driver_Api.o [1]
BMI160_G_0_Data         0x20021d40      0x8  Data  Lc  x_nucleo_iks01a1_gyro.o [1]
BMI160_G_Check_WhoAmI   0x08066b2b      0x2  Code  Lc  BMI160_ACC_GYRO_Driver_Api.o [1]
BMI160_G_DeInit         0x08066a4b     0x24  Code  Lc  BMI160_ACC_GYRO_Driver_Api.o [1]
BMI160_G_Drv            0x20012840     0x44  Data  Gb  BMI160_ACC_GYRO_Driver_Api.o [1]
BMI160_G_Get_Axes       0x08066b2d     0xdc  Code  Lc  BMI160_ACC_GYRO_Driver_Api.o [1]
BMI160_G_Get_AxesRaw    0x08066c25     0x14  Code  Lc  BMI160_ACC_GYRO_Driver_Api.o [1]
BMI160_G_Get_Axes_Status
                        0x08067019     0x38  Code  Lc  BMI160_ACC_GYRO_Driver_Api.o [1]
BMI160_G_Get_FS         0x08066f3d     0x4a  Code  Lc  BMI160_ACC_GYRO_Driver_Api.o [1]
BMI160_G_Get_ODR        0x08066cbd     0x6a  Code  Lc  BMI160_ACC_GYRO_Driver_Api.o [1]
BMI160_G_Get_Sensitivity
                        0x08066c69     0x4c  Code  Lc  BMI160_ACC_GYRO_Driver_Api.o [1]
BMI160_G_Get_WhoAmI     0x08066b29      0x2  Code  Lc  BMI160_ACC_GYRO_Driver_Api.o [1]
BMI160_G_Init           0x08066a01     0x3c  Code  Lc  BMI160_ACC_GYRO_Driver_Api.o [1]
BMI160_G_Sensor_Disable
                        0x08066ae3     0x2e  Code  Lc  BMI160_ACC_GYRO_Driver_Api.o [1]
BMI160_G_Sensor_Enable  0x08066a8d     0x56  Code  Lc  BMI160_ACC_GYRO_Driver_Api.o [1]
BMI160_G_Set_Axes_Status
                        0x08067057     0x12  Code  Lc  BMI160_ACC_GYRO_Driver_Api.o [1]
BMI160_G_Set_FS         0x08066f95     0x22  Code  Lc  BMI160_ACC_GYRO_Driver_Api.o [1]
BMI160_G_Set_FS_Value   0x08066fb9     0x40  Code  Lc  BMI160_ACC_GYRO_Driver_Api.o [1]
BMI160_G_Set_ODR        0x08066d2d     0x7c  Code  Lc  BMI160_ACC_GYRO_Driver_Api.o [1]
BMI160_G_Set_ODR_Value  0x08066db9    0x16a  Code  Lc  BMI160_ACC_GYRO_Driver_Api.o [1]
BMI160_G_Set_ODR_Value_When_Enabled
                        0x08067161     0x8a  Code  Lc  BMI160_ACC_GYRO_Driver_Api.o [1]
BMI160_Get_WhoAmI       0x08067077      0xc  Code  Lc  BMI160_ACC_GYRO_Driver_Api.o [1]
BMI160_INIT_SENSOR_API  0x08067215     0xac  Code  Gb  BMI160_ACC_GYRO_Driver_Api.o [1]
BMI160_X_0_Data         0x20021cdc      0x8  Data  Lc  x_nucleo_iks01a1_accelero.o [1]
BMI160_X_Check_WhoAmI   0x080664b5      0x4  Code  Lc  BMI160_ACC_GYRO_Driver_Api.o [1]
BMI160_X_DeInit         0x08066403     0x20  Code  Lc  BMI160_ACC_GYRO_Driver_Api.o [1]
BMI160_X_Drv            0x200127b0     0x48  Data  Gb  BMI160_ACC_GYRO_Driver_Api.o [1]
BMI160_X_Get_Axes       0x080664b9    0x1b0  Code  Lc  BMI160_ACC_GYRO_Driver_Api.o [1]
BMI160_X_Get_AxesRaw    0x08066671     0x16  Code  Lc  BMI160_ACC_GYRO_Driver_Api.o [1]
BMI160_X_Get_Axes_Status
                        0x080669af     0x3c  Code  Lc  BMI160_ACC_GYRO_Driver_Api.o [1]
BMI160_X_Get_FS         0x080668e5     0x46  Code  Lc  BMI160_ACC_GYRO_Driver_Api.o [1]
BMI160_X_Get_ODR        0x080666dd     0x98  Code  Lc  BMI160_ACC_GYRO_Driver_Api.o [1]
BMI160_X_Get_Sensitivity
                        0x08066691     0x46  Code  Lc  BMI160_ACC_GYRO_Driver_Api.o [1]
BMI160_X_Get_WhoAmI     0x080664b1      0x4  Code  Lc  BMI160_ACC_GYRO_Driver_Api.o [1]
BMI160_X_Init           0x080663c5     0x3e  Code  Lc  BMI160_ACC_GYRO_Driver_Api.o [1]
BMI160_X_Sensor_Disable
                        0x08066477     0x3a  Code  Lc  BMI160_ACC_GYRO_Driver_Api.o [1]
BMI160_X_Sensor_Enable  0x08066423     0x54  Code  Lc  BMI160_ACC_GYRO_Driver_Api.o [1]
BMI160_X_Set_Axes_Status
                        0x080669eb     0x10  Code  Lc  BMI160_ACC_GYRO_Driver_Api.o [1]
BMI160_X_Set_FS         0x08066959     0x22  Code  Lc  BMI160_ACC_GYRO_Driver_Api.o [1]
BMI160_X_Set_FS_Value   0x0806697d     0x32  Code  Lc  BMI160_ACC_GYRO_Driver_Api.o [1]
BMI160_X_Set_Mode       0x08067559     0x9e  Code  Lc  BMI160_ACC_GYRO_Driver_Api.o [1]
BMI160_X_Set_ODR        0x08066775     0x64  Code  Lc  BMI160_ACC_GYRO_Driver_Api.o [1]
BMI160_X_Set_ODR_Value  0x080667dd     0xfc  Code  Lc  BMI160_ACC_GYRO_Driver_Api.o [1]
BMI160_X_Set_ODR_Value_When_Enabled
                        0x080670ad     0xa0  Code  Lc  BMI160_ACC_GYRO_Driver_Api.o [1]
BQ25896_Drv             0x200129f8     0x30  Data  Gb  bq2589x_charger.o [1]
BSP_ACCELERO_Get_Axes   0x0806545f     0x20  Code  Gb  x_nucleo_iks01a1_accelero.o [1]
BSP_ACCELERO_Get_AxesRaw
                        0x0806547f     0x20  Code  Gb  x_nucleo_iks01a1_accelero.o [1]
BSP_ACCELERO_Init       0x08065255     0x84  Code  Gb  x_nucleo_iks01a1_accelero.o [1]
BSP_ACCELERO_Sensor_Enable
                        0x08065445     0x1a  Code  Gb  x_nucleo_iks01a1_accelero.o [1]
BSP_ACCELERO_Set_ODR    0x0806549f     0x1a  Code  Gb  x_nucleo_iks01a1_accelero.o [1]
BSP_AKM099XX_MAGNETO_Init
                        0x0804f40f     0x56  Code  Lc  x_nucleo_iks01a1_magneto.o [1]
BSP_BMI160_ACCELERO_Init
                        0x080653ab     0x80  Code  Lc  x_nucleo_iks01a1_accelero.o [1]
BSP_BMI160_GYRO_Init    0x080650dd     0x80  Code  Lc  x_nucleo_iks01a1_gyro.o [1]
BSP_EPL88051_PROXIMITY_Init
                        0x08065cd1     0x5a  Code  Lc  x_nucleo_iks01a1_proximity.o [1]
BSP_GYRO_Get_Axes       0x0806518b     0x20  Code  Gb  x_nucleo_iks01a1_gyro.o [1]
BSP_GYRO_Get_AxesRaw    0x080651ab     0x20  Code  Gb  x_nucleo_iks01a1_gyro.o [1]
BSP_GYRO_Get_Sensitivity
                        0x080651cb     0x20  Code  Gb  x_nucleo_iks01a1_gyro.o [1]
BSP_GYRO_Init           0x08064fd9     0x84  Code  Gb  x_nucleo_iks01a1_gyro.o [1]
BSP_GYRO_Sensor_Enable  0x08065171     0x1a  Code  Gb  x_nucleo_iks01a1_gyro.o [1]
BSP_GYRO_Set_ODR        0x080651eb     0x1a  Code  Gb  x_nucleo_iks01a1_gyro.o [1]
BSP_LSM6DSM_ACCELERO_Init
                        0x080652d9     0xc2  Code  Lc  x_nucleo_iks01a1_accelero.o [1]
BSP_LSM6DSM_GYRO_Init   0x0806505d     0x80  Code  Lc  x_nucleo_iks01a1_gyro.o [1]
BSP_MAGNETO_Get_Accuracy
                        0x0804f575     0x1a  Code  Gb  x_nucleo_iks01a1_magneto.o [1]
BSP_MAGNETO_Get_Axes    0x0804f521     0x20  Code  Gb  x_nucleo_iks01a1_magneto.o [1]
BSP_MAGNETO_Get_User_Calibration
                        0x0804f5a9     0x1a  Code  Gb  x_nucleo_iks01a1_magneto.o [1]
BSP_MAGNETO_Get_WhoAmI  0x0804f501     0x20  Code  Gb  x_nucleo_iks01a1_magneto.o [1]
BSP_MAGNETO_Init        0x0804f3d1     0x3e  Code  Gb  x_nucleo_iks01a1_magneto.o [1]
BSP_MAGNETO_Sensor_Enable
                        0x0804f4e7     0x1a  Code  Gb  x_nucleo_iks01a1_magneto.o [1]
BSP_MAGNETO_Sensor_Selftest
                        0x0804f55b     0x1a  Code  Gb  x_nucleo_iks01a1_magneto.o [1]
BSP_MAGNETO_Set_ODR     0x0804f541     0x1a  Code  Gb  x_nucleo_iks01a1_magneto.o [1]
BSP_MAGNETO_Set_User_Calibration
                        0x0804f58f     0x1a  Code  Gb  x_nucleo_iks01a1_magneto.o [1]
BSP_PROXIMITY_Get_Proximity
                        0x08065d69     0x20  Code  Gb  x_nucleo_iks01a1_proximity.o [1]
BSP_PROXIMITY_Init      0x08065cad     0x24  Code  Gb  x_nucleo_iks01a1_proximity.o [1]
BSP_PROXIMITY_Sensor_Disable
                        0x08065d4f     0x1a  Code  Gb  x_nucleo_iks01a1_proximity.o [1]
BSP_PROXIMITY_Sensor_Enable
                        0x08065d35     0x1a  Code  Gb  x_nucleo_iks01a1_proximity.o [1]
BSP_YAS537_MAGNETO_Init
                        0x0804f465     0x66  Code  Lc  x_nucleo_iks01a1_magneto.o [1]
Bmi160PmNotifyData      0x200223f0     0x1c  Data  Lc  BMI160_ACC_GYRO_Driver_Api.o [1]
BusFault_Handler        0x08082d99      0x6  Code  Gb  stm32f4xx_it.o [1]
ButtonMsgQueueHandle    0x20022270      0x4  Data  Lc  key_drv.o [1]
CAL_G_0_handle          0x200225a0      0x4  Data  Gb  gSensor_Calibate.o [1]
CAL_X_0_handle          0x2002259c      0x4  Data  Gb  gSensor_Calibate.o [1]
COMP_CDC_Control_FS     0x08060637      0x4  Code  Lc  usbd_comp_if.o [1]
COMP_CDC_DeInit_FS      0x08060633      0x4  Code  Lc  usbd_comp_if.o [1]
COMP_CDC_Init_FS        0x08060621     0x12  Code  Lc  usbd_comp_if.o [1]
COMP_CDC_Receive_FS     0x0806063b     0x2c  Code  Lc  usbd_comp_if.o [1]
COMP_CDC_Transmit_FS    0x08060683     0x2c  Code  Gb  usbd_comp_if.o [1]
COMP_CDC_Transmit_STATE
                        0x08060667     0x1c  Code  Gb  usbd_comp_if.o [1]
COMP_VendorSpec_Transmit
                        0x080606af     0x40  Code  Gb  usbd_comp_if.o [1]
CSTACK$$Base            0x200225c8           Data  Gb  - Linker created -
CSTACK$$Limit           0x200239c8           Data  Gb  - Linker created -
Cal_initializeAccSensor
                        0x0805914f     0x3c  Code  Gb  gSensor_Calibate.o [1]
Cal_initializeGyroSensor
                        0x0805918b     0x3c  Code  Gb  gSensor_Calibate.o [1]
Charge_Ovp_Timer_Detect_Callback
                        0x0805cc33     0x22  Code  Lc  ccgx_ec.o [1]
CheckDistCompen         0x08081585    0x10c  Code  Lc  AKDecomp.o [3]
CommdMsgQueueHandle     0x20022534      0x4  Data  Lc  command.o [1]
CyFindDevices           0x08056fb1      0x4  Code  Gb  ccgx_fw_io.o [1]
CyUsEnterFlashingMode   0x08056653     0x32  Code  Gb  ccgx_fw.o [1]
CyUsGetFwInfo           0x0805653b     0x54  Code  Gb  ccgx_fw.o [1]
CyUsPDPortDisable       0x08056685     0x48  Code  Gb  ccgx_fw.o [1]
CyUsReadResponse        0x080565d9     0x7a  Code  Gb  ccgx_fw.o [1]
CyUsRegisterRead        0x08056fc5      0xa  Code  Gb  ccgx_fw_io.o [1]
CyUsRegisterWrite       0x08056fb9      0xc  Code  Gb  ccgx_fw_io.o [1]
CyUsValidateFirmware    0x080566dd     0x42  Code  Gb  ccgx_fw.o [1]
CyUsWriteFlashRow       0x0805671f     0x60  Code  Gb  ccgx_fw.o [1]
DMA2_Stream0_IRQHandler
                        0x08082e11      0x6  Code  Gb  stm32f4xx_it.o [1]
DMA_CalcBaseAndBitshift
                        0x0806d7bb     0x24  Code  Lc  stm32f4xx_hal_dma.o [1]
DMA_SetConfig           0x0806d79d     0x1e  Code  Lc  stm32f4xx_hal_dma.o [1]
Data_Ovp_Timer_Detect_Callback
                        0x0805cc03     0x30  Code  Lc  ccgx_ec.o [1]
DebugMon_Handler        0x08082da7      0x4  Code  Gb  stm32f4xx_it.o [1]
Display_ON              0x080831d8      0x4  Data  Lc  ams361ep01_dsi_vdo.o [1]
Display_off             0x080831e0      0x4  Data  Lc  ams361ep01_dsi_vdo.o [1]
DoCommand               0x080465e9     0x44  Code  Gb  command.o [1]
EPL88051Drv             0x20012a78     0x1c  Data  Gb  EPL88051_PROXIMITY_driver_HL.o [1]
EPL88051_Check_WhoAmI   0x08082895     0x36  Code  Lc  EPL88051_PROXIMITY_driver_HL.o [1]
EPL88051_DeInit         0x080827e3     0x34  Code  Lc  EPL88051_PROXIMITY_driver_HL.o [1]
EPL88051_Disable        0x08082851     0x22  Code  Lc  EPL88051_PROXIMITY_driver_HL.o [1]
EPL88051_Enable         0x0808281f     0x32  Code  Lc  EPL88051_PROXIMITY_driver_HL.o [1]
EPL88051_Get_Proximity  0x080828cb     0x20  Code  Lc  EPL88051_PROXIMITY_driver_HL.o [1]
EPL88051_Get_WhoAmI     0x0808287f     0x16  Code  Lc  EPL88051_PROXIMITY_driver_HL.o [1]
EPL88051_Init           0x080827a1     0x42  Code  Lc  EPL88051_PROXIMITY_driver_HL.o [1]
EXTI0_IRQHandler        0x08082dcf      0x6  Code  Gb  stm32f4xx_it.o [1]
EXTI15_10_IRQHandler    0x08082e3f     0x36  Code  Gb  stm32f4xx_it.o [1]
EXTI1_IRQHandler        0x08082dd5      0x6  Code  Gb  stm32f4xx_it.o [1]
EXTI2_IRQHandler        0x08082ddb      0x6  Code  Gb  stm32f4xx_it.o [1]
EXTI3_IRQHandler        0x08082de1     0x1e  Code  Gb  stm32f4xx_it.o [1]
EXTI4_IRQHandler        0x08082dff      0x6  Code  Gb  stm32f4xx_it.o [1]
EXTI9_5_IRQHandler      0x08082e17     0x28  Code  Gb  stm32f4xx_it.o [1]
Error_Handler           0x0806055d      0x2  Code  Gb  main.o [1]
ExecDistCompen          0x08081691     0xf2  Code  Lc  AKDecomp.o [3]
FLASH_Erase_Sector      0x0806a409     0x48  Code  Gb  stm32f4xx_hal_flash_ex.o [1]
FLASH_FlushCaches       0x0806a451     0x50  Code  Gb  stm32f4xx_hal_flash_ex.o [1]
FLASH_MassErase         0x0806a3e9     0x20  Code  Lc  stm32f4xx_hal_flash_ex.o [1]
FLASH_Program_Byte      0x0806a2a9     0x1a  Code  Lc  stm32f4xx_hal_flash.o [1]
FLASH_Program_DoubleWord
                        0x0806a24b     0x22  Code  Lc  stm32f4xx_hal_flash.o [1]
FLASH_Program_HalfWord  0x0806a28b     0x1e  Code  Lc  stm32f4xx_hal_flash.o [1]
FLASH_Program_Word      0x0806a26d     0x1e  Code  Lc  stm32f4xx_hal_flash.o [1]
FLASH_SetErrorCode      0x0806a2c3     0x74  Code  Lc  stm32f4xx_hal_flash.o [1]
FLASH_WaitForLastOperation
                        0x0806a1fb     0x50  Code  Gb  stm32f4xx_hal_flash.o [1]
FS_Desc                 0x20012ab0     0x1c  Data  Gb  usbd_desc.o [1]
FitOnSphere             0x0807e7cb     0xa4  Code  Lc  AKHDOE.o [3]
FloatToQFormatInteger   0x0805bd31     0x82  Code  Lc  sensor_task.o [1]
GYRO_Data               0x20021d28     0x18  Data  Lc  x_nucleo_iks01a1_gyro.o [1]
GYRO_SensorHandle       0x20021cec     0x3c  Data  Lc  x_nucleo_iks01a1_gyro.o [1]
GetBitNum               0x080635d1     0x3e  Code  Gb  PowerManager_state_machine.o [1]
GetHexVal               0x08056795     0x2e  Code  Gb  ccgx_fw.o [1]
GetMagneticVector       0x08080d37    0x2c8  Code  Gb  measure.o [1]
GetRadius               0x0807e943     0xcc  Code  Lc  AKHDOE.o [3]
Gyro_Calibate           0x0805920b     0x9c  Code  Gb  gSensor_Calibate.o [1]
GyroscopeBiasEstimator_reset
                        0x08070445     0x64  Code  Gb  GyroscopeBiasEstimator.o [1]
HAL_ADCEx_InjectedConvCpltCallback
                        0x0806d3c5      0x2  Code  Wk  stm32f4xx_hal_adc_ex.o [1]
HAL_ADC_ConfigChannel   0x0806172f    0x138  Code  Gb  stm32f4xx_hal_adc.o [1]
HAL_ADC_ConvCpltCallback
                        0x080517c5     0x1e  Code  Gb  htc_adc_func.o [1]
HAL_ADC_ConvHalfCpltCallback
                        0x08061729      0x2  Code  Wk  stm32f4xx_hal_adc.o [1]
HAL_ADC_ErrorCallback   0x0806172d      0x2  Code  Wk  stm32f4xx_hal_adc.o [1]
HAL_ADC_IRQHandler      0x080614a1    0x120  Code  Gb  stm32f4xx_hal_adc.o [1]
HAL_ADC_Init            0x0806144d     0x54  Code  Gb  stm32f4xx_hal_adc.o [1]
HAL_ADC_LevelOutOfWindowCallback
                        0x0806172b      0x2  Code  Wk  stm32f4xx_hal_adc.o [1]
HAL_ADC_MspInit         0x08069365     0xc8  Code  Gb  stm32f4xx_hal_msp.o [1]
HAL_ADC_Start_DMA       0x080615cd    0x106  Code  Gb  stm32f4xx_hal_adc.o [1]
HAL_ADC_Stop_DMA        0x080616d3     0x56  Code  Gb  stm32f4xx_hal_adc.o [1]
HAL_DBG_UART_Transmit   0x08069c6f     0x54  Code  Gb  stm32f4xx_hal_uart.o [1]
HAL_DMA_Abort           0x0806d52b     0x92  Code  Gb  stm32f4xx_hal_dma.o [1]
HAL_DMA_Abort_IT        0x0806d5bd     0x24  Code  Gb  stm32f4xx_hal_dma.o [1]
HAL_DMA_IRQHandler      0x0806d5e1    0x1aa  Code  Gb  stm32f4xx_hal_dma.o [1]
HAL_DMA_Init            0x0806d3c9     0xf0  Code  Gb  stm32f4xx_hal_dma.o [1]
HAL_DMA_Start_IT        0x0806d4b9     0x66  Code  Gb  stm32f4xx_hal_dma.o [1]
HAL_Delay               0x080601bd     0x18  Code  Wk  stm32f4xx_hal.o [1]
HAL_FLASHEx_Erase       0x0806a355     0x94  Code  Gb  stm32f4xx_hal_flash_ex.o [1]
HAL_FLASH_Lock          0x0806a1e3      0x8  Code  Gb  stm32f4xx_hal_flash.o [1]
HAL_FLASH_OB_Lock       0x0806a1f1      0xa  Code  Gb  stm32f4xx_hal_flash.o [1]
HAL_FLASH_Program       0x0806a15d     0x72  Code  Gb  stm32f4xx_hal_flash.o [1]
HAL_FLASH_Unlock        0x0806a1cf     0x14  Code  Gb  stm32f4xx_hal_flash.o [1]
HAL_GPIO_DeInit         0x080474b3     0xfa  Code  Gb  stm32f4xx_hal_gpio.o [1]
HAL_GPIO_EXTI_Callback  0x08047121     0x2a  Code  Gb  gpio.o [1]
HAL_GPIO_EXTI_IRQHandler
                        0x080475c1     0x14  Code  Gb  stm32f4xx_hal_gpio.o [1]
HAL_GPIO_Init           0x0804731d    0x196  Code  Gb  stm32f4xx_hal_gpio.o [1]
HAL_GPIO_ReadPin        0x080475ad      0xc  Code  Gb  stm32f4xx_hal_gpio.o [1]
HAL_GPIO_WritePin       0x080475b9      0x8  Code  Gb  stm32f4xx_hal_gpio.o [1]
HAL_GetTick             0x080601b7      0x6  Code  Wk  stm32f4xx_hal.o [1]
HAL_I2C_DeInit          0x0805e345     0x28  Code  Gb  stm32f4xx_hal_i2c.o [1]
HAL_I2C_Init            0x0805e27d     0xc8  Code  Gb  stm32f4xx_hal_i2c.o [1]
HAL_I2C_Mem_Read        0x0805e4d3    0x1d4  Code  Gb  stm32f4xx_hal_i2c.o [1]
HAL_I2C_Mem_Write       0x0805e3a9    0x100  Code  Gb  stm32f4xx_hal_i2c.o [1]
HAL_I2C_MspDeInit       0x080694c3     0x30  Code  Gb  stm32f4xx_hal_msp.o [1]
HAL_I2C_MspInit         0x0806943b     0x6e  Code  Gb  stm32f4xx_hal_msp.o [1]
HAL_IWDG_Init           0x0806a553     0x44  Code  Gb  stm32f4xx_hal_iwdg.o [1]
HAL_IWDG_Refresh        0x0806a597      0xc  Code  Gb  stm32f4xx_hal_iwdg.o [1]
HAL_IncTick             0x080601ad      0xa  Code  Wk  stm32f4xx_hal.o [1]
HAL_Init                0x0806017d     0x30  Code  Gb  stm32f4xx_hal.o [1]
HAL_InitTick            0x0806a4ad     0x6e  Code  Gb  stm32f4xx_hal_timebase_TIM.o [1]
HAL_MspInit             0x08069305     0x60  Code  Gb  stm32f4xx_hal_msp.o [1]
HAL_NVIC_DisableIRQ     0x0805bac7      0xa  Code  Gb  stm32f4xx_hal_cortex.o [1]
HAL_NVIC_EnableIRQ      0x0805babb      0xc  Code  Gb  stm32f4xx_hal_cortex.o [1]
HAL_NVIC_SetPriority    0x0805ba77     0x44  Code  Gb  stm32f4xx_hal_cortex.o [1]
HAL_NVIC_SetPriorityGrouping
                        0x0805ba5d     0x1a  Code  Gb  stm32f4xx_hal_cortex.o [1]
HAL_NVIC_SystemReset    0x0805bad9     0x1a  Code  Gb  stm32f4xx_hal_cortex.o [1]
HAL_PCDEx_ActivateBCD   0x08071a79     0x10  Code  Gb  stm32f4xx_hal_pcd_ex.o [1]
HAL_PCDEx_ActivateLPM   0x08071a4d     0x22  Code  Gb  stm32f4xx_hal_pcd_ex.o [1]
HAL_PCDEx_LPM_Callback  0x08071a77      0x2  Code  Wk  stm32f4xx_hal_pcd_ex.o [1]
HAL_PCDEx_SetRxFiFo     0x08071a45      0x8  Code  Gb  stm32f4xx_hal_pcd_ex.o [1]
HAL_PCDEx_SetTxFiFo     0x08071a09     0x3c  Code  Gb  stm32f4xx_hal_pcd_ex.o [1]
HAL_PCD_ConnectCallback
                        0x0806d281      0x8  Code  Gb  usbd_conf.o [1]
HAL_PCD_DataInStageCallback
                        0x0806d207     0x10  Code  Gb  usbd_conf.o [1]
HAL_PCD_DataOutStageCallback
                        0x0806d1f5     0x12  Code  Gb  usbd_conf.o [1]
HAL_PCD_DisconnectCallback
                        0x0806d289      0x8  Code  Gb  usbd_conf.o [1]
HAL_PCD_EP_Close        0x080717f5     0x38  Code  Gb  stm32f4xx_hal_pcd.o [1]
HAL_PCD_EP_ClrStall     0x0807193b     0x44  Code  Gb  stm32f4xx_hal_pcd.o [1]
HAL_PCD_EP_GetRxCount   0x08071891     0x12  Code  Gb  stm32f4xx_hal_pcd.o [1]
HAL_PCD_EP_Open         0x080717a9     0x4c  Code  Gb  stm32f4xx_hal_pcd.o [1]
HAL_PCD_EP_Receive      0x08071839     0x50  Code  Gb  stm32f4xx_hal_pcd.o [1]
HAL_PCD_EP_SetStall     0x080718e5     0x56  Code  Gb  stm32f4xx_hal_pcd.o [1]
HAL_PCD_EP_Transmit     0x080718a3     0x42  Code  Gb  stm32f4xx_hal_pcd.o [1]
HAL_PCD_IRQHandler      0x0807126f    0x4a2  Code  Gb  stm32f4xx_hal_pcd.o [1]
HAL_PCD_ISOINIncompleteCallback
                        0x0806d279      0x8  Code  Gb  usbd_conf.o [1]
HAL_PCD_ISOOUTIncompleteCallback
                        0x0806d271      0x8  Code  Gb  usbd_conf.o [1]
HAL_PCD_Init            0x08071169     0xbe  Code  Gb  stm32f4xx_hal_pcd.o [1]
HAL_PCD_MspInit         0x0806d189     0x60  Code  Gb  usbd_conf.o [1]
HAL_PCD_ResetCallback   0x0806d21f     0x20  Code  Gb  usbd_conf.o [1]
HAL_PCD_ResumeCallback  0x0806d269      0x8  Code  Gb  usbd_conf.o [1]
HAL_PCD_SOFCallback     0x0806d217      0x8  Code  Gb  usbd_conf.o [1]
HAL_PCD_SetAddress      0x08071785     0x1c  Code  Gb  stm32f4xx_hal_pcd.o [1]
HAL_PCD_SetupStageCallback
                        0x0806d1e9      0xc  Code  Gb  usbd_conf.o [1]
HAL_PCD_Start           0x08071231     0x1c  Code  Gb  stm32f4xx_hal_pcd.o [1]
HAL_PCD_Stop            0x0807124d     0x22  Code  Gb  stm32f4xx_hal_pcd.o [1]
HAL_PCD_SuspendCallback
                        0x0806d23f     0x2a  Code  Gb  usbd_conf.o [1]
HAL_PWREx_ControlVoltageScaling
                        0x0806d7e9     0x9e  Code  Gb  stm32f4xx_hal_pwr_ex.o [1]
HAL_PWR_EnterSLEEPMode  0x0806d895     0x1a  Code  Gb  stm32f4xx_hal_pwr.o [1]
HAL_PWR_EnterSTOPMode   0x0806d8af     0x2c  Code  Gb  stm32f4xx_hal_pwr.o [1]
HAL_RCCEx_PeriphCLKConfig
                        0x0806c9f1    0x230  Code  Gb  stm32f4xx_hal_rcc_ex.o [1]
HAL_RCC_ClockConfig     0x08069699    0x13c  Code  Gb  stm32f4xx_hal_rcc.o [1]
HAL_RCC_GetClockConfig  0x08069849     0x34  Code  Gb  stm32f4xx_hal_rcc.o [1]
HAL_RCC_GetHCLKFreq     0x0806981b      0x6  Code  Gb  stm32f4xx_hal_rcc.o [1]
HAL_RCC_GetPCLK1Freq    0x08069821     0x12  Code  Gb  stm32f4xx_hal_rcc.o [1]
HAL_RCC_GetPCLK2Freq    0x08069833     0x10  Code  Gb  stm32f4xx_hal_rcc.o [1]
HAL_RCC_GetSysClockFreq
                        0x080697d5     0x46  Code  Wk  stm32f4xx_hal_rcc.o [1]
HAL_RCC_OscConfig       0x0806cc21    0x240  Code  Gb  stm32f4xx_hal_rcc_ex.o [1]
HAL_RTCEx_AlarmBEventCallback
                        0x08052e8b      0x6  Code  Gb  rtc_drv.o [1]
HAL_RTCEx_BKUPRead      0x080621bb      0xa  Code  Gb  stm32f4xx_hal_rtc_ex.o [1]
HAL_RTCEx_BKUPWrite     0x080621b1      0xa  Code  Gb  stm32f4xx_hal_rtc_ex.o [1]
HAL_RTCEx_DeactivateWakeUpTimer
                        0x080620fb     0x52  Code  Gb  stm32f4xx_hal_rtc_ex.o [1]
HAL_RTCEx_SetWakeUpTimer_IT
                        0x08062021     0xda  Code  Gb  stm32f4xx_hal_rtc_ex.o [1]
HAL_RTCEx_WakeUpTimerEventCallback
                        0x08052e5d     0x1a  Code  Gb  rtc_drv.o [1]
HAL_RTCEx_WakeUpTimerIRQHandler
                        0x0806216f     0x2a  Code  Gb  stm32f4xx_hal_rtc_ex.o [1]
HAL_RTC_AlarmAEventCallback
                        0x08052e77     0x14  Code  Gb  rtc_drv.o [1]
HAL_RTC_AlarmIRQHandler
                        0x08061f27     0x56  Code  Gb  stm32f4xx_hal_rtc.o [1]
HAL_RTC_DeactivateAlarm
                        0x08061dff     0x74  Code  Gb  stm32f4xx_hal_rtc.o [1]
HAL_RTC_GetAlarm        0x08061ea9     0x7e  Code  Gb  stm32f4xx_hal_rtc.o [1]
HAL_RTC_GetDate         0x08061c2b     0x3c  Code  Gb  stm32f4xx_hal_rtc.o [1]
HAL_RTC_GetTime         0x08061b3f     0x44  Code  Gb  stm32f4xx_hal_rtc.o [1]
HAL_RTC_Init            0x080619f5     0x7e  Code  Gb  stm32f4xx_hal_rtc.o [1]
HAL_RTC_MspInit         0x08069625     0x36  Code  Gb  stm32f4xx_hal_msp.o [1]
HAL_RTC_SetAlarm_IT     0x08061c91    0x16e  Code  Gb  stm32f4xx_hal_rtc.o [1]
HAL_RTC_SetDate         0x08061b89     0x90  Code  Gb  stm32f4xx_hal_rtc.o [1]
HAL_RTC_SetTime         0x08061a89     0xa6  Code  Gb  stm32f4xx_hal_rtc.o [1]
HAL_RTC_WaitForSynchro  0x08061f95     0x30  Code  Gb  stm32f4xx_hal_rtc.o [1]
HAL_ResumeTick          0x0806a529      0xe  Code  Gb  stm32f4xx_hal_timebase_TIM.o [1]
HAL_SPI_DeInit          0x0806ab1b     0x2e  Code  Gb  stm32f4xx_hal_spi.o [1]
HAL_SPI_GetState        0x0806ae79      0x6  Code  Gb  stm32f4xx_hal_spi.o [1]
HAL_SPI_Init            0x0806aaa1     0x7a  Code  Gb  stm32f4xx_hal_spi.o [1]
HAL_SPI_MspDeInit       0x08069561     0x1e  Code  Gb  stm32f4xx_hal_msp.o [1]
HAL_SPI_MspInit         0x080694f3     0x6e  Code  Gb  stm32f4xx_hal_msp.o [1]
HAL_SPI_Transmit        0x0806ab49    0x152  Code  Gb  stm32f4xx_hal_spi.o [1]
HAL_SPI_TransmitReceive
                        0x0806aca5    0x1b6  Code  Gb  stm32f4xx_hal_spi.o [1]
HAL_SYSTICK_CLKSourceConfig
                        0x0805bb1b     0x14  Code  Gb  stm32f4xx_hal_cortex.o [1]
HAL_SYSTICK_Config      0x0805baf3     0x28  Code  Gb  stm32f4xx_hal_cortex.o [1]
HAL_SuspendTick         0x0806a51b      0xe  Code  Gb  stm32f4xx_hal_timebase_TIM.o [1]
HAL_TIMEx_BreakCallback
                        0x08071a93      0x2  Code  Wk  stm32f4xx_hal_tim_ex.o [1]
HAL_TIMEx_CommutationCallback
                        0x08071a91      0x2  Code  Wk  stm32f4xx_hal_tim_ex.o [1]
HAL_TIM_Base_Init       0x0806d98d     0x1a  Code  Gb  stm32f4xx_hal_tim.o [1]
HAL_TIM_Base_MspInit    0x0806d9a7      0x2  Code  Wk  stm32f4xx_hal_tim.o [1]
HAL_TIM_Base_Start_IT   0x0806d9a9     0x16  Code  Gb  stm32f4xx_hal_tim.o [1]
HAL_TIM_IC_CaptureCallback
                        0x0806db39      0x2  Code  Wk  stm32f4xx_hal_tim.o [1]
HAL_TIM_IRQHandler      0x0806d9df    0x158  Code  Gb  stm32f4xx_hal_tim.o [1]
HAL_TIM_OC_DelayElapsedCallback
                        0x0806db37      0x2  Code  Wk  stm32f4xx_hal_tim.o [1]
HAL_TIM_PWM_PulseFinishedCallback
                        0x0806db3b      0x2  Code  Wk  stm32f4xx_hal_tim.o [1]
HAL_TIM_PeriodElapsedCallback
                        0x0806a545      0xe  Code  Gb  stm32f4xx_hal_timebase_TIM.o [1]
HAL_TIM_TriggerCallback
                        0x0806db3d      0x2  Code  Wk  stm32f4xx_hal_tim.o [1]
HAL_UART_DeInit         0x08069ba1     0x26  Code  Gb  stm32f4xx_hal_uart.o [1]
HAL_UART_ErrorCallback  0x0806a857     0x36  Code  Gb  usart_drv.o [1]
HAL_UART_IRQHandler     0x08069d2d    0x162  Code  Gb  stm32f4xx_hal_uart.o [1]
HAL_UART_Init           0x08069b35     0x30  Code  Gb  stm32f4xx_hal_uart.o [1]
HAL_UART_MspDeInit      0x080695e5     0x40  Code  Gb  stm32f4xx_hal_msp.o [1]
HAL_UART_MspInit        0x0806957f     0x66  Code  Gb  stm32f4xx_hal_msp.o [1]
HAL_UART_Receive_IT     0x08069cd7     0x50  Code  Gb  stm32f4xx_hal_uart.o [1]
HAL_UART_RxCpltCallback
                        0x0806a847     0x10  Code  Gb  usart_drv.o [1]
HAL_UART_Transmit       0x08069bc7     0xa8  Code  Gb  stm32f4xx_hal_uart.o [1]
HAL_UART_TxCpltCallback
                        0x08069e9b      0x2  Code  Wk  stm32f4xx_hal_uart.o [1]
HDOE                    0x0807e681    0x142  Code  Lc  AKHDOE.o [3]
HDecision               0x0807e86f     0xd4  Code  Lc  AKHDOE.o [3]
HEAP$$Base              0x200239c8            --   Gb  - Linker created -
HEAP$$Limit             0x20024bc8            --   Gb  - Linker created -
HTC_i2c_polling_Read    0x08047dbf     0x30  Code  Gb  rtos_i2c_drv.o [1]
HTC_i2c_polling_Write   0x08047def     0x30  Code  Gb  rtos_i2c_drv.o [1]
HardFault_Handler       0x08082d89      0x6  Code  Gb  stm32f4xx_it.o [1]
HeadTracker_            0x2001f648      0x4  Data  Gb  HeadTracker.o [1]
HeadTracker_Instance    0x2001f650    0x910  Data  Gb  HeadTracker.o [1]
I16V_INIT_VALUE         0x080835b4      0x8  Data  Gb  AKMDevice.o [3]
I2C_FailCounter         0x200222a8      0x8  Data  Lc  rtos_i2c_drv.o [1]
I2C_GetHandleByAddr     0x08047c51     0x5a  Code  Gb  rtos_i2c_drv.o [1]
I2C_IsAcknowledgeFailed
                        0x0805ea35     0x2a  Code  Lc  stm32f4xx_hal_i2c.o [1]
I2C_RequestMemoryRead   0x0805e7c3     0xaa  Code  Lc  stm32f4xx_hal_i2c.o [1]
I2C_RequestMemoryWrite  0x0805e72d     0x7e  Code  Lc  stm32f4xx_hal_i2c.o [1]
I2C_WaitOnBTFFlagUntilTimeout
                        0x0805e999     0x34  Code  Lc  stm32f4xx_hal_i2c.o [1]
I2C_WaitOnFlagUntilTimeout
                        0x0805e883     0x5e  Code  Lc  stm32f4xx_hal_i2c.o [1]
I2C_WaitOnMasterAddressFlagUntilTimeout
                        0x0805e8e1     0x84  Code  Lc  stm32f4xx_hal_i2c.o [1]
I2C_WaitOnRXNEFlagUntilTimeout
                        0x0805e9e9     0x4c  Code  Lc  stm32f4xx_hal_i2c.o [1]
I2C_WaitOnTXEFlagUntilTimeout
                        0x0805e965     0x34  Code  Lc  stm32f4xx_hal_i2c.o [1]
IOEXP_REG_DATA          0x20012b7c      0xc  Data  Lc  gpio_exp.o [1]
InStream_Read           0x08082b59     0x22  Code  Lc  lz77_init.o [6]
InitAKSCPRMS            0x08080c35     0x2c  Code  Gb  measure.o [1]
InitMeasure             0x08080c87     0x9e  Code  Gb  measure.o [1]
Init_So3Util            0x08071b25     0x66  Code  Gb  So3Util.o [1]
Instance_So3Util        0x2002164c     0xc8  Data  Lc  So3Util.o [1]
Instance_headTransform  0x2002200c     0x44  Data  Gb  sensor_task.o [1]
KeyIsrHandleTask        0x0805d4dd     0xa8  Code  Lc  key_drv.o [1]
LCM_GetDriver           0x08055493      0x4  Code  Gb  ams361ep01_dsi_vdo.o [1]
LSM6DSM_ACC_GYRO_GetRawAccData
                        0x0807a203     0x2a  Code  Gb  LSM6DSM_ACC_GYRO_driver.o [1]
LSM6DSM_ACC_GYRO_GetRawGyroData
                        0x0807a1d9     0x2a  Code  Gb  LSM6DSM_ACC_GYRO_driver.o [1]
LSM6DSM_ACC_GYRO_Get_GetStepCounter
                        0x0807a241     0x20  Code  Gb  LSM6DSM_ACC_GYRO_driver.o [1]
LSM6DSM_ACC_GYRO_R_D6D_EV_STATUS
                        0x08079ec1      0xa  Code  Gb  LSM6DSM_ACC_GYRO_driver.o [1]
LSM6DSM_ACC_GYRO_R_DOUBLE_TAP_EV_STATUS
                        0x08079e6b      0xa  Code  Gb  LSM6DSM_ACC_GYRO_driver.o [1]
LSM6DSM_ACC_GYRO_R_DSD_XH
                        0x08079e89      0xa  Code  Gb  LSM6DSM_ACC_GYRO_driver.o [1]
LSM6DSM_ACC_GYRO_R_DSD_XL
                        0x08079e7f      0xa  Code  Gb  LSM6DSM_ACC_GYRO_driver.o [1]
LSM6DSM_ACC_GYRO_R_DSD_YH
                        0x08079e9b      0xa  Code  Gb  LSM6DSM_ACC_GYRO_driver.o [1]
LSM6DSM_ACC_GYRO_R_DSD_YL
                        0x08079e93      0x8  Code  Gb  LSM6DSM_ACC_GYRO_driver.o [1]
LSM6DSM_ACC_GYRO_R_DSD_ZH
                        0x08079eb7      0xa  Code  Gb  LSM6DSM_ACC_GYRO_driver.o [1]
LSM6DSM_ACC_GYRO_R_DSD_ZL
                        0x08079ead      0xa  Code  Gb  LSM6DSM_ACC_GYRO_driver.o [1]
LSM6DSM_ACC_GYRO_R_FF_EV_STATUS
                        0x08079e59      0xa  Code  Gb  LSM6DSM_ACC_GYRO_driver.o [1]
LSM6DSM_ACC_GYRO_R_FS_125
                        0x08079c5d      0xa  Code  Gb  LSM6DSM_ACC_GYRO_driver.o [1]
LSM6DSM_ACC_GYRO_R_FS_G
                        0x08079c9d      0x8  Code  Gb  LSM6DSM_ACC_GYRO_driver.o [1]
LSM6DSM_ACC_GYRO_R_FS_XL
                        0x08079c19      0xa  Code  Gb  LSM6DSM_ACC_GYRO_driver.o [1]
LSM6DSM_ACC_GYRO_R_ODR_G
                        0x08079ce1      0x8  Code  Gb  LSM6DSM_ACC_GYRO_driver.o [1]
LSM6DSM_ACC_GYRO_R_ODR_XL
                        0x08079c3b      0xa  Code  Gb  LSM6DSM_ACC_GYRO_driver.o [1]
LSM6DSM_ACC_GYRO_R_PEDO_EV_STATUS
                        0x08079ed3      0xa  Code  Gb  LSM6DSM_ACC_GYRO_driver.o [1]
LSM6DSM_ACC_GYRO_R_SINGLE_TAP_EV_STATUS
                        0x08079e75      0xa  Code  Gb  LSM6DSM_ACC_GYRO_driver.o [1]
LSM6DSM_ACC_GYRO_R_TILT_EV_STATUS
                        0x08079edd      0xa  Code  Gb  LSM6DSM_ACC_GYRO_driver.o [1]
LSM6DSM_ACC_GYRO_R_WHO_AM_I
                        0x08079be7      0x6  Code  Gb  LSM6DSM_ACC_GYRO_driver.o [1]
LSM6DSM_ACC_GYRO_R_WU_EV_STATUS
                        0x08079e47      0xa  Code  Gb  LSM6DSM_ACC_GYRO_driver.o [1]
LSM6DSM_ACC_GYRO_ReadReg
                        0x08079ad9     0x12  Code  Gb  LSM6DSM_ACC_GYRO_driver.o [1]
LSM6DSM_ACC_GYRO_W_6DEvOnInt2
                        0x0807a155     0x18  Code  Gb  LSM6DSM_ACC_GYRO_driver.o [1]
LSM6DSM_ACC_GYRO_W_BASIC_INT
                        0x08079f3b     0x18  Code  Gb  LSM6DSM_ACC_GYRO_driver.o [1]
LSM6DSM_ACC_GYRO_W_BDU  0x08079d1f     0x18  Code  Gb  LSM6DSM_ACC_GYRO_driver.o [1]
LSM6DSM_ACC_GYRO_W_DUR  0x08079fef     0x28  Code  Gb  LSM6DSM_ACC_GYRO_driver.o [1]
LSM6DSM_ACC_GYRO_W_EmbeddedAccess
                        0x08079aff     0x1e  Code  Gb  LSM6DSM_ACC_GYRO_driver.o [1]
LSM6DSM_ACC_GYRO_W_FFEvOnInt2
                        0x0807a185     0x18  Code  Gb  LSM6DSM_ACC_GYRO_driver.o [1]
LSM6DSM_ACC_GYRO_W_FF_Duration
                        0x0807a0df     0x56  Code  Gb  LSM6DSM_ACC_GYRO_driver.o [1]
LSM6DSM_ACC_GYRO_W_FF_THS
                        0x0807a0c3     0x1c  Code  Gb  LSM6DSM_ACC_GYRO_driver.o [1]
LSM6DSM_ACC_GYRO_W_FIFO_MODE
                        0x08079b2f     0x18  Code  Gb  LSM6DSM_ACC_GYRO_driver.o [1]
LSM6DSM_ACC_GYRO_W_FS_125
                        0x08079c45     0x18  Code  Gb  LSM6DSM_ACC_GYRO_driver.o [1]
LSM6DSM_ACC_GYRO_W_FS_G
                        0x08079c67     0x18  Code  Gb  LSM6DSM_ACC_GYRO_driver.o [1]
LSM6DSM_ACC_GYRO_W_FS_XL
                        0x08079bf7     0x18  Code  Gb  LSM6DSM_ACC_GYRO_driver.o [1]
LSM6DSM_ACC_GYRO_W_FUNC_EN
                        0x08079e2f     0x18  Code  Gb  LSM6DSM_ACC_GYRO_driver.o [1]
LSM6DSM_ACC_GYRO_W_IF_Addr_Incr
                        0x08079cfb     0x18  Code  Gb  LSM6DSM_ACC_GYRO_driver.o [1]
LSM6DSM_ACC_GYRO_W_ODR_G
                        0x08079cb7     0x18  Code  Gb  LSM6DSM_ACC_GYRO_driver.o [1]
LSM6DSM_ACC_GYRO_W_ODR_XL
                        0x08079c23     0x18  Code  Gb  LSM6DSM_ACC_GYRO_driver.o [1]
LSM6DSM_ACC_GYRO_W_PEDO
                        0x08079df9     0x18  Code  Gb  LSM6DSM_ACC_GYRO_driver.o [1]
LSM6DSM_ACC_GYRO_W_PedoStepReset
                        0x08079dc9     0x18  Code  Gb  LSM6DSM_ACC_GYRO_driver.o [1]
LSM6DSM_ACC_GYRO_W_PedoThreshold
                        0x0807a261     0x28  Code  Gb  LSM6DSM_ACC_GYRO_driver.o [1]
LSM6DSM_ACC_GYRO_W_QUIET_Duration
                        0x08079fbb     0x1a  Code  Gb  LSM6DSM_ACC_GYRO_driver.o [1]
LSM6DSM_ACC_GYRO_W_SHOCK_Duration
                        0x08079fa1     0x1a  Code  Gb  LSM6DSM_ACC_GYRO_driver.o [1]
LSM6DSM_ACC_GYRO_W_SINGLE_DOUBLE_TAP_EV
                        0x0807a039     0x18  Code  Gb  LSM6DSM_ACC_GYRO_driver.o [1]
LSM6DSM_ACC_GYRO_W_SIXD_THS
                        0x08079f6b     0x18  Code  Gb  LSM6DSM_ACC_GYRO_driver.o [1]
LSM6DSM_ACC_GYRO_W_SLEEP_DUR
                        0x0807a05d     0x1a  Code  Gb  LSM6DSM_ACC_GYRO_driver.o [1]
LSM6DSM_ACC_GYRO_W_STEP_DELTA_on_INT2
                        0x08079bcf     0x18  Code  Gb  LSM6DSM_ACC_GYRO_driver.o [1]
LSM6DSM_ACC_GYRO_W_SingleTapOnInt2
                        0x0807a1c1     0x18  Code  Gb  LSM6DSM_ACC_GYRO_driver.o [1]
LSM6DSM_ACC_GYRO_W_TAP_THS
                        0x08079f53     0x18  Code  Gb  LSM6DSM_ACC_GYRO_driver.o [1]
LSM6DSM_ACC_GYRO_W_TAP_X_EN
                        0x08079f17     0x18  Code  Gb  LSM6DSM_ACC_GYRO_driver.o [1]
LSM6DSM_ACC_GYRO_W_TAP_Y_EN
                        0x08079eff     0x18  Code  Gb  LSM6DSM_ACC_GYRO_driver.o [1]
LSM6DSM_ACC_GYRO_W_TAP_Z_EN
                        0x08079ee7     0x18  Code  Gb  LSM6DSM_ACC_GYRO_driver.o [1]
LSM6DSM_ACC_GYRO_W_TILT
                        0x08079de1     0x18  Code  Gb  LSM6DSM_ACC_GYRO_driver.o [1]
LSM6DSM_ACC_GYRO_W_TIMER_HR
                        0x0807a077     0x18  Code  Gb  LSM6DSM_ACC_GYRO_driver.o [1]
LSM6DSM_ACC_GYRO_W_TapEvOnInt2
                        0x0807a16d     0x18  Code  Gb  LSM6DSM_ACC_GYRO_driver.o [1]
LSM6DSM_ACC_GYRO_W_TiltEvOnInt2
                        0x0807a13d     0x18  Code  Gb  LSM6DSM_ACC_GYRO_driver.o [1]
LSM6DSM_ACC_GYRO_W_WAKE_DUR
                        0x0807a09b     0x1a  Code  Gb  LSM6DSM_ACC_GYRO_driver.o [1]
LSM6DSM_ACC_GYRO_W_WK_THS
                        0x0807a017     0x22  Code  Gb  LSM6DSM_ACC_GYRO_driver.o [1]
LSM6DSM_ACC_GYRO_W_WUEvOnInt2
                        0x0807a1a9     0x18  Code  Gb  LSM6DSM_ACC_GYRO_driver.o [1]
LSM6DSM_ACC_GYRO_WriteReg
                        0x08079aeb     0x14  Code  Gb  LSM6DSM_ACC_GYRO_driver.o [1]
LSM6DSM_Check_WhoAmI    0x08079281     0x2a  Code  Lc  LSM6DSM_ACC_GYRO_driver_HL.o [1]
LSM6DSM_Combo_Data      0x200224c6      0x2  Data  Gb  LSM6DSM_ACC_GYRO_driver_HL.o [1]
LSM6DSM_G_0_Data        0x20021d48      0x8  Data  Lc  x_nucleo_iks01a1_gyro.o [1]
LSM6DSM_G_Check_WhoAmI  0x08078e7f      0x2  Code  Lc  LSM6DSM_ACC_GYRO_driver_HL.o [1]
LSM6DSM_G_DeInit        0x08078e09     0x1e  Code  Lc  LSM6DSM_ACC_GYRO_driver_HL.o [1]
LSM6DSM_G_Drv           0x20012884     0x44  Data  Gb  LSM6DSM_ACC_GYRO_driver_HL.o [1]
LSM6DSM_G_Get_Axes      0x08078e81     0x72  Code  Lc  LSM6DSM_ACC_GYRO_driver_HL.o [1]
LSM6DSM_G_Get_AxesRaw   0x08078f01      0xa  Code  Lc  LSM6DSM_ACC_GYRO_driver_HL.o [1]
LSM6DSM_G_Get_Axes_Raw  0x0807937d     0x10  Code  Lc  LSM6DSM_ACC_GYRO_driver_HL.o [1]
LSM6DSM_G_Get_FS        0x08079155     0x64  Code  Lc  LSM6DSM_ACC_GYRO_driver_HL.o [1]
LSM6DSM_G_Get_ODR       0x08078f91     0x8c  Code  Lc  LSM6DSM_ACC_GYRO_driver_HL.o [1]
LSM6DSM_G_Get_Sensitivity
                        0x08078f23     0x64  Code  Lc  LSM6DSM_ACC_GYRO_driver_HL.o [1]
LSM6DSM_G_Get_WhoAmI    0x08078e7d      0x2  Code  Lc  LSM6DSM_ACC_GYRO_driver_HL.o [1]
LSM6DSM_G_Init          0x08078d79     0x5e  Code  Lc  LSM6DSM_ACC_GYRO_driver_HL.o [1]
LSM6DSM_G_Sensor_Disable
                        0x08078e51     0x2c  Code  Lc  LSM6DSM_ACC_GYRO_driver_HL.o [1]
LSM6DSM_G_Sensor_Enable
                        0x08078e27     0x1e  Code  Lc  LSM6DSM_ACC_GYRO_driver_HL.o [1]
LSM6DSM_G_Set_FS        0x080791dd     0x24  Code  Lc  LSM6DSM_ACC_GYRO_driver_HL.o [1]
LSM6DSM_G_Set_FS_Value  0x08079201     0x60  Code  Lc  LSM6DSM_ACC_GYRO_driver_HL.o [1]
LSM6DSM_G_Set_ODR       0x08079021     0x60  Code  Lc  LSM6DSM_ACC_GYRO_driver_HL.o [1]
LSM6DSM_G_Set_ODR_Value
                        0x08079081     0xd4  Code  Lc  LSM6DSM_ACC_GYRO_driver_HL.o [1]
LSM6DSM_G_Set_ODR_Value_When_Enabled
                        0x080793c9     0x8a  Code  Lc  LSM6DSM_ACC_GYRO_driver_HL.o [1]
LSM6DSM_Get_WhoAmI      0x08079271     0x10  Code  Lc  LSM6DSM_ACC_GYRO_driver_HL.o [1]
LSM6DSM_X_0_Data        0x20021ce4      0x8  Data  Lc  x_nucleo_iks01a1_accelero.o [1]
LSM6DSM_X_Check_WhoAmI  0x08078a0d      0x4  Code  Lc  LSM6DSM_ACC_GYRO_driver_HL.o [1]
LSM6DSM_X_DeInit        0x0807895b     0x64  Code  Lc  LSM6DSM_ACC_GYRO_driver_HL.o [1]
LSM6DSM_X_Disable_6D_Orientation
                        0x080799d3     0x26  Code  Lc  LSM6DSM_ACC_GYRO_driver_HL.o [1]
LSM6DSM_X_Disable_Double_Tap_Detection
                        0x080798db     0x66  Code  Lc  LSM6DSM_ACC_GYRO_driver_HL.o [1]
LSM6DSM_X_Disable_Free_Fall_Detection
                        0x080794ef     0x30  Code  Lc  LSM6DSM_ACC_GYRO_driver_HL.o [1]
LSM6DSM_X_Disable_Pedometer
                        0x08079595     0x32  Code  Lc  LSM6DSM_ACC_GYRO_driver_HL.o [1]
LSM6DSM_X_Disable_Single_Tap_Detection
                        0x080797f1     0x4e  Code  Lc  LSM6DSM_ACC_GYRO_driver_HL.o [1]
LSM6DSM_X_Disable_Step_Counter_Reset
                        0x0807960f     0x12  Code  Lc  LSM6DSM_ACC_GYRO_driver_HL.o [1]
LSM6DSM_X_Disable_Tilt_Detection
                        0x0807966d     0x26  Code  Lc  LSM6DSM_ACC_GYRO_driver_HL.o [1]
LSM6DSM_X_Disable_Wake_Up_Detection
                        0x080796fb     0x2c  Code  Lc  LSM6DSM_ACC_GYRO_driver_HL.o [1]
LSM6DSM_X_Drv           0x200127f8     0x48  Data  Gb  LSM6DSM_ACC_GYRO_driver_HL.o [1]
LSM6DSM_X_Enable_6D_Orientation
                        0x080799a1     0x32  Code  Lc  LSM6DSM_ACC_GYRO_driver_HL.o [1]
LSM6DSM_X_Enable_Double_Tap_Detection
                        0x0807986b     0x70  Code  Lc  LSM6DSM_ACC_GYRO_driver_HL.o [1]
LSM6DSM_X_Enable_Free_Fall_Detection
                        0x08079491     0x56  Code  Lc  LSM6DSM_ACC_GYRO_driver_HL.o [1]
LSM6DSM_X_Enable_Pedometer
                        0x0807954f     0x3e  Code  Lc  LSM6DSM_ACC_GYRO_driver_HL.o [1]
LSM6DSM_X_Enable_Single_Tap_Detection
                        0x08079757     0x56  Code  Lc  LSM6DSM_ACC_GYRO_driver_HL.o [1]
LSM6DSM_X_Enable_Step_Counter_Reset
                        0x080795fd     0x12  Code  Lc  LSM6DSM_ACC_GYRO_driver_HL.o [1]
LSM6DSM_X_Enable_Tilt_Detection
                        0x08079631     0x32  Code  Lc  LSM6DSM_ACC_GYRO_driver_HL.o [1]
LSM6DSM_X_Enable_Wake_Up_Detection
                        0x080796b3     0x38  Code  Lc  LSM6DSM_ACC_GYRO_driver_HL.o [1]
LSM6DSM_X_ExtDrv        0x200120b4     0x94  Data  Gb  LSM6DSM_ACC_GYRO_driver_HL.o [1]
LSM6DSM_X_Get_6D_Orientation_Status
                        0x080799f9     0x20  Code  Lc  LSM6DSM_ACC_GYRO_driver_HL.o [1]
LSM6DSM_X_Get_6D_Orientation_XH
                        0x08079a39     0x20  Code  Lc  LSM6DSM_ACC_GYRO_driver_HL.o [1]
LSM6DSM_X_Get_6D_Orientation_XL
                        0x08079a19     0x20  Code  Lc  LSM6DSM_ACC_GYRO_driver_HL.o [1]
LSM6DSM_X_Get_6D_Orientation_YH
                        0x08079a79     0x20  Code  Lc  LSM6DSM_ACC_GYRO_driver_HL.o [1]
LSM6DSM_X_Get_6D_Orientation_YL
                        0x08079a59     0x20  Code  Lc  LSM6DSM_ACC_GYRO_driver_HL.o [1]
LSM6DSM_X_Get_6D_Orientation_ZH
                        0x08079ab9     0x20  Code  Lc  LSM6DSM_ACC_GYRO_driver_HL.o [1]
LSM6DSM_X_Get_6D_Orientation_ZL
                        0x08079a99     0x20  Code  Lc  LSM6DSM_ACC_GYRO_driver_HL.o [1]
LSM6DSM_X_Get_Axes      0x08078a11     0x72  Code  Lc  LSM6DSM_ACC_GYRO_driver_HL.o [1]
LSM6DSM_X_Get_AxesRaw   0x08078a83      0xc  Code  Lc  LSM6DSM_ACC_GYRO_driver_HL.o [1]
LSM6DSM_X_Get_Axes_Raw  0x080792ab     0x12  Code  Lc  LSM6DSM_ACC_GYRO_driver_HL.o [1]
LSM6DSM_X_Get_Double_Tap_Detection_Status
                        0x08079941     0x20  Code  Lc  LSM6DSM_ACC_GYRO_driver_HL.o [1]
LSM6DSM_X_Get_FS        0x08078cb1     0x44  Code  Lc  LSM6DSM_ACC_GYRO_driver_HL.o [1]
LSM6DSM_X_Get_Free_Fall_Detection_Status
                        0x0807951f     0x20  Code  Lc  LSM6DSM_ACC_GYRO_driver_HL.o [1]
LSM6DSM_X_Get_ODR       0x08078ad5     0x8c  Code  Lc  LSM6DSM_ACC_GYRO_driver_HL.o [1]
LSM6DSM_X_Get_Pedometer_Status
                        0x080795c7     0x20  Code  Lc  LSM6DSM_ACC_GYRO_driver_HL.o [1]
LSM6DSM_X_Get_Sensitivity
                        0x08078a91     0x44  Code  Lc  LSM6DSM_ACC_GYRO_driver_HL.o [1]
LSM6DSM_X_Get_Single_Tap_Detection_Status
                        0x0807984b     0x20  Code  Lc  LSM6DSM_ACC_GYRO_driver_HL.o [1]
LSM6DSM_X_Get_Step_Count
                        0x080795ed     0x10  Code  Lc  LSM6DSM_ACC_GYRO_driver_HL.o [1]
LSM6DSM_X_Get_Tilt_Detection_Status
                        0x08079693     0x20  Code  Lc  LSM6DSM_ACC_GYRO_driver_HL.o [1]
LSM6DSM_X_Get_Wake_Up_Detection_Status
                        0x08079727     0x20  Code  Lc  LSM6DSM_ACC_GYRO_driver_HL.o [1]
LSM6DSM_X_Get_WhoAmI    0x08078a09      0x4  Code  Lc  LSM6DSM_ACC_GYRO_driver_HL.o [1]
LSM6DSM_X_Init          0x08078909     0x52  Code  Lc  LSM6DSM_ACC_GYRO_driver_HL.o [1]
LSM6DSM_X_Sensor_Disable
                        0x080789dd     0x2c  Code  Lc  LSM6DSM_ACC_GYRO_driver_HL.o [1]
LSM6DSM_X_Sensor_Enable
                        0x080789bf     0x1e  Code  Lc  LSM6DSM_ACC_GYRO_driver_HL.o [1]
LSM6DSM_X_Set_FS        0x08078cf9     0x24  Code  Lc  LSM6DSM_ACC_GYRO_driver_HL.o [1]
LSM6DSM_X_Set_FS_Value  0x08078d1d     0x3a  Code  Lc  LSM6DSM_ACC_GYRO_driver_HL.o [1]
LSM6DSM_X_Set_Free_Fall_Threshold
                        0x0807953f     0x10  Code  Lc  LSM6DSM_ACC_GYRO_driver_HL.o [1]
LSM6DSM_X_Set_ODR       0x08078b69     0x62  Code  Lc  LSM6DSM_ACC_GYRO_driver_HL.o [1]
LSM6DSM_X_Set_ODR_Value
                        0x08078bcd     0xd4  Code  Lc  LSM6DSM_ACC_GYRO_driver_HL.o [1]
LSM6DSM_X_Set_ODR_Value_When_Enabled
                        0x080792bd     0x8a  Code  Lc  LSM6DSM_ACC_GYRO_driver_HL.o [1]
LSM6DSM_X_Set_Pedometer_Threshold
                        0x08079621     0x10  Code  Lc  LSM6DSM_ACC_GYRO_driver_HL.o [1]
LSM6DSM_X_Set_Tap_Duration_Time
                        0x08079991     0x10  Code  Lc  LSM6DSM_ACC_GYRO_driver_HL.o [1]
LSM6DSM_X_Set_Tap_Quiet_Time
                        0x08079981     0x10  Code  Lc  LSM6DSM_ACC_GYRO_driver_HL.o [1]
LSM6DSM_X_Set_Tap_Shock_Time
                        0x08079971     0x10  Code  Lc  LSM6DSM_ACC_GYRO_driver_HL.o [1]
LSM6DSM_X_Set_Tap_Threshold
                        0x08079961     0x10  Code  Lc  LSM6DSM_ACC_GYRO_driver_HL.o [1]
LSM6DSM_X_Set_Wake_Up_Threshold
                        0x08079747     0x10  Code  Lc  LSM6DSM_ACC_GYRO_driver_HL.o [1]
LTPS_update             0x08083188      0x4  Data  Lc  ams361ep01_dsi_vdo.o [1]
LedMsgQueueHandle       0x2001294c      0x4  Data  Gb  led_hal.o [1]
LedTaskHandle           0x20012948      0x4  Data  Gb  led_hal.o [1]
LoadInt                 0x0805f091     0x6e  Code  Lc  xprintffull.o [4]
MAGNETIC_handle         0x200224ec      0x4  Data  Gb  sensor_task.o [1]
MAGNETO_Data            0x200221c0     0x10  Data  Lc  x_nucleo_iks01a1_magneto.o [1]
MAGNETO_SensorHandle    0x20022198     0x28  Data  Lc  x_nucleo_iks01a1_magneto.o [1]
MAX17050_Drv            0x20012a54     0x24  Data  Gb  max17050_fuel_gauge.o [1]
MISC_DataStructure      0x2001ebf0    0xa58  Data  Gb  misc_data.o [1]
MX_DBG_UART             0x0806a5a5     0x32  Code  Gb  usart_drv.o [1]
MX_I2C1_Init            0x08047d63     0x32  Code  Gb  rtos_i2c_drv.o [1]
MX_I2C2_Init            0x08047d95     0x2a  Code  Gb  rtos_i2c_drv.o [1]
MX_IWDG_Init            0x080604fb     0x10  Code  Gb  main.o [1]
MX_IWDG_Reinit_For_Suspend
                        0x0806053d     0x1a  Code  Gb  main.o [1]
MX_NVIC_Init            0x08046f1b     0x8c  Code  Gb  gpio.o [1]
MX_USB_DEVICE_Init      0x0806afeb     0x94  Code  Gb  usb_device.o [1]
MX_XA_GPIO_Init         0x08046ad9     0xe6  Code  Lc  gpio.o [1]
MX_XB_GPIO_Init         0x08046bdf     0xde  Code  Lc  gpio.o [1]
MX_XC_GPIO_Init         0x08046d15     0xce  Code  Lc  gpio.o [1]
Matrix3x3d_add          0x08072223     0x98  Code  Gb  Matrix3x3d.o [1]
Matrix3x3d_determinant  0x080726bb     0xc4  Code  Gb  Matrix3x3d.o [1]
Matrix3x3d_get          0x08072479     0x12  Code  Gb  Matrix3x3d.o [1]
Matrix3x3d_getColumn    0x08072499     0x16  Code  Gb  Matrix3x3d.o [1]
Matrix3x3d_invert       0x080727a5     0xd6  Code  Gb  Matrix3x3d.o [1]
Matrix3x3d_minusEquals  0x080725c7     0x90  Code  Gb  Matrix3x3d.o [1]
Matrix3x3d_mult_M       0x080722bb     0xca  Code  Gb  Matrix3x3d.o [1]
Matrix3x3d_mult_V       0x08072385     0x64  Code  Gb  Matrix3x3d.o [1]
Matrix3x3d_plusEquals   0x08072535     0x92  Code  Gb  Matrix3x3d.o [1]
Matrix3x3d_scale        0x080724c5     0x70  Code  Gb  Matrix3x3d.o [1]
Matrix3x3d_setColumn    0x080724af     0x16  Code  Gb  Matrix3x3d.o [1]
Matrix3x3d_setIdentity  0x08072453     0x16  Code  Gb  Matrix3x3d.o [1]
Matrix3x3d_setSameDiagonal
                        0x08072469      0x2  Code  Gb  Matrix3x3d.o [1]
Matrix3x3d_setZero      0x0807243b     0x18  Code  Gb  Matrix3x3d.o [1]
Matrix3x3d_set_m        0x080723e9     0x28  Code  Gb  Matrix3x3d.o [1]
Matrix3x3d_set_o        0x08072411     0x2a  Code  Gb  Matrix3x3d.o [1]
Matrix3x3d_set_v        0x0807248b      0xe  Code  Gb  Matrix3x3d.o [1]
Matrix3x3d_transpose    0x0807265d     0x28  Code  Gb  Matrix3x3d.o [1]
Matrix3x3d_transpose_r  0x08072685     0x36  Code  Gb  Matrix3x3d.o [1]
MemManage_Handler       0x08082d91      0x6  Code  Gb  stm32f4xx_it.o [1]
NCP6924_Deinit          0x08049bf7     0x24  Code  Lc  ncp6924.o [1]
NCP6924_Drv             0x20012b24     0x14  Data  Gb  ncp6924.o [1]
NCP6924_Init            0x08049cb7     0x92  Code  Lc  ncp6924.o [1]
NCP6924_LDO_Enable      0x08049c1b     0x24  Code  Lc  ncp6924.o [1]
NCP6924_LDO_GetEnableState
                        0x08049c4b     0x6c  Code  Lc  ncp6924.o [1]
NCP6924_LDO_SetVoltage  0x08049be3     0x14  Code  Lc  ncp6924.o [1]
NMI_Handler             0x08082d81      0x6  Code  Gb  stm32f4xx_it.o [1]
NVIC_GetPriorityGrouping
                        0x0805ba39      0xa  Code  Lc  stm32f4xx_hal_cortex.o [1]
NVIC_SetPriority        0x0805ba43     0x1a  Code  Lc  stm32f4xx_hal_cortex.o [1]
OTG_FS_IRQHandler       0x08082e05      0x6  Code  Gb  stm32f4xx_it.o [1]
OTP_key_lock            0x080831d0      0x8  Data  Lc  ams361ep01_dsi_vdo.o [1]
OTP_key_unlock          0x080831c4      0x8  Data  Lc  ams361ep01_dsi_vdo.o [1]
OTP_loading             0x080831a8      0x4  Data  Lc  ams361ep01_dsi_vdo.o [1]
OrientationEKF_reset    0x0806f86d    0x320  Code  Gb  OrientationEKF.o [1]
OutStream_Write         0x08082b7b     0x40  Code  Lc  lz77_init.o [6]
PCD_WriteEmptyTxFifo    0x0807197f     0x8a  Code  Lc  stm32f4xx_hal_pcd.o [1]
PMIC_Data               0x20012018     0x18  Data  Lc  x_pmic.o [1]
PMIC_Fun                0x20012074      0xc  Data  Lc  x_pmic.o [1]
PMIC_Handle             0x20012030     0x44  Data  Lc  x_pmic.o [1]
PRMGR_battery_get_uiSoc
                        0x08062217     0x1e  Code  Gb  PowerManager_battery.o [1]
PRMGR_battery_update_uiSoc
                        0x08062379    0x2c6  Code  Gb  PowerManager_battery.o [1]
PRMGR_update_battery_curr_state
                        0x0806234b     0x28  Code  Gb  PowerManager_battery.o [1]
PRMGR_update_battery_low_state
                        0x0806227f     0x26  Code  Gb  PowerManager_battery.o [1]
PRMGR_update_battery_overheat_state
                        0x08062323     0x28  Code  Gb  PowerManager_battery.o [1]
PRMGR_update_battery_uiSoC
                        0x08062257     0x28  Code  Gb  PowerManager_battery.o [1]
PRMGR_update_chg_ovp_state
                        0x080622ed     0x36  Code  Gb  PowerManager_battery.o [1]
PRMGR_update_chg_state  0x080622b1     0x28  Code  Gb  PowerManager_battery.o [1]
PROXIMITY_Data          0x200223ac      0xc  Data  Lc  x_nucleo_iks01a1_proximity.o [1]
PROXIMITY_SensorHandle  0x20022398     0x14  Data  Lc  x_nucleo_iks01a1_proximity.o [1]
PROXIMITY_handle        0x20022510      0x4  Data  Lc  proximity_task.o [1]
PWRMGR_CheckNotifyAck   0x0805df67     0x34  Code  Lc  PowerManager_notify_func.o [1]
PWRMGR_DumpNotify       0x0806c6ff      0xa  Code  Gb  PowerManager_command.o [1]
PWRMGR_GetMachineState  0x0806c787     0x2c  Code  Gb  PowerManager_command.o [1]
PWRMGR_HELP             0x0806c7d1     0x3c  Code  Gb  PowerManager_command.o [1]
PWRMGR_NotifyTest       0x0806c723     0x5c  Code  Gb  PowerManager_command.o [1]
PWRMGR_PreparePowerOff  0x0805dfd7     0xca  Code  Lc  PowerManager_notify_func.o [1]
PWRMGR_SYSTEM_CAN_BE_POWER_OFF
                        0x08063d95     0x2e  Code  Gb  PowerManager_power.o [1]
PWRMGR_SYSTEM_POWER_ENTER_STOP_MODE
                        0x08063e19     0x56  Code  Gb  PowerManager_power.o [1]
PWRMGR_SYSTEM_POWER_EXIT_SLEEP_MODE
                        0x08063eb3     0x22  Code  Gb  PowerManager_power.o [1]
PWRMGR_SYSTEM_POWER_EXIT_STOP_MODE
                        0x08063e95     0x1e  Code  Gb  PowerManager_power.o [1]
PWRMGR_SYSTEM_POWER_POWEROFF
                        0x08063f1d     0x48  Code  Gb  PowerManager_power.o [1]
PWRMGR_SYSTEM_POWER_RESET
                        0x08063ed5     0x48  Code  Gb  PowerManager_power.o [1]
PWRMGR_SYSTEM_POWER_SLEEP_MODE
                        0x08063dc3     0x56  Code  Gb  PowerManager_power.o [1]
PWRMGR_SYSTEM_RTC_WAKEUP
                        0x08063d3d     0x14  Code  Gb  PowerManager_power.o [1]
PWRMGR_SYSTEM_SET_VOLTAGE_SCALING
                        0x08063d31      0xc  Code  Gb  PowerManager_power.o [1]
PWRMGR_SendNotify       0x0805dde9     0x8a  Code  Gb  PowerManager_notify_func.o [1]
PWRMGR_SendNotifyAck    0x0805df9b     0x36  Code  Gb  PowerManager_notify_func.o [1]
PWRMGR_Stress_Reboot    0x0806c665     0x7e  Code  Gb  PowerManager_command.o [1]
PWRMGR_SystemPowerOff   0x0806c571      0xe  Code  Gb  PowerManager_command.o [1]
PWRMGR_SystemReset      0x0806c57f     0xa8  Code  Gb  PowerManager_command.o [1]
PWRMGR_SystemSleep      0x0806c555      0xe  Code  Gb  PowerManager_command.o [1]
PWRMGR_SystemStop       0x0806c563      0xe  Code  Gb  PowerManager_command.o [1]
PWRMGR_Wakeup           0x0806c551      0x4  Code  Gb  PowerManager_command.o [1]
PWRMGR_batt_notify_callback
                        0x08062a2d     0xe6  Code  Lc  PowerManager_battery.o [1]
PWRMGR_battery_get_info
                        0x080621d1      0xa  Code  Lc  PowerManager_battery.o [1]
PWRMGR_battery_initial_service
                        0x08062b27     0xe4  Code  Gb  PowerManager_battery.o [1]
PWRMGR_battery_stat_func
                        0x0806264b     0x5e  Code  Lc  PowerManager_battery.o [1]
PWRMGR_battery_state_notify
                        0x080628c9    0x13e  Code  Lc  PowerManager_battery.o [1]
PWRMGR_charging_fault_callback
                        0x08062725     0xa0  Code  Lc  PowerManager_battery.o [1]
PWRMGR_charging_led_callback
                        0x0806288d     0x3c  Code  Lc  PowerManager_battery.o [1]
PWRMGR_charging_ovp_callback
                        0x080627cb     0xac  Code  Lc  PowerManager_battery.o [1]
PWRMGR_dump_notify_func
                        0x0805de73     0x3a  Code  Gb  PowerManager_notify_func.o [1]
PWRMGR_get_battery_online
                        0x080621dd     0x3a  Code  Lc  PowerManager_battery.o [1]
PWRMGR_initial          0x0806b18d     0x3e  Code  Gb  PowerManager.o [1]
PWRMGR_peripherals_init
                        0x08070b55      0x2  Code  Gb  PowerManager_peripherals.o [1]
PWRMGR_reboot_func_execute
                        0x0805e0b7      0x6  Code  Gb  PowerManager_notify_func.o [1]
PWRMGR_reboot_test      0x0806c6e3     0x14  Code  Gb  PowerManager_command.o [1]
PWRMGR_register_notify_func
                        0x0805dead     0xba  Code  Gb  PowerManager_notify_func.o [1]
PWRMGR_resume_func_execute
                        0x0805e0af      0x4  Code  Gb  PowerManager_notify_func.o [1]
PWRMGR_shutdown_func_execute
                        0x0805e0bd      0x6  Code  Gb  PowerManager_notify_func.o [1]
PWRMGR_suspend_func_execute
                        0x0805e0a9      0x6  Code  Gb  PowerManager_notify_func.o [1]
PWRMGR_update_charging_fault_state
                        0x08062235     0x22  Code  Gb  PowerManager_battery.o [1]
PWRMGR_update_charging_stat
                        0x080626a9     0x7c  Code  Lc  PowerManager_battery.o [1]
ParseCommandAndData     0x08046515     0xbe  Code  Gb  command.o [1]
PendSV_Handler          0x0806d8e5           Code  Gb  portasm.o [1]
PeriphMultipleTask      0x0805ca45     0x6a  Code  Gb  periph_multiple_drv.o [1]
PmBattNotifyData        0x20022428     0x1c  Data  Lc  PowerManager_battery.o [1]
PmNotifyData            0x2002240c     0x1c  Data  Lc  led_hal.o [1]
PmNotifyData            0x20021b38     0x1c  Data  Lc  usart_drv.o [1]
PmSysNotifyData         0x20022444     0x1c  Data  Lc  PowerManager_system.o [1]
PowerDoCommand          0x0806c80d     0x44  Code  Gb  PowerManager_command.o [1]
PowercommandTable       0x0806c9a8     0x48  Data  Gb  PowerManager_command.o [1]
RTC_Alarm_IRQHandler    0x08082e0b      0x6  Code  Gb  stm32f4xx_it.o [1]
RTC_Bcd2ToByte          0x0806200f     0x10  Code  Gb  stm32f4xx_hal_rtc.o [1]
RTC_ByteToBcd2          0x08061ff9     0x16  Code  Gb  stm32f4xx_hal_rtc.o [1]
RTC_EnterInitMode       0x08061fc5     0x34  Code  Gb  stm32f4xx_hal_rtc.o [1]
RTC_WKUP_IRQHandler     0x08082dbd      0x6  Code  Gb  stm32f4xx_it.o [1]
RTOS_I2C_Init           0x080480e3     0x40  Code  Gb  rtos_i2c_drv.o [1]
RTOS_I2C_ReadBuffer     0x08047e37    0x16c  Code  Gb  rtos_i2c_drv.o [1]
RTOS_I2C_WriteBuffer    0x08047faf     0xe4  Code  Gb  rtos_i2c_drv.o [1]
Region$$Table$$Base     0x080833e0            --   Gb  - Linker created -
Region$$Table$$Limit    0x0808340c            --   Gb  - Linker created -
RxChar                  0x20021388    0x100  Data  Lc  usart_drv.o [1]
RxCharIndexIn           0x20021ba0      0x4  Data  Lc  usart_drv.o [1]
S3_Certification        0x0807e0b1    0x22e  Code  Lc  AKHDOE.o [3]
SENSOR_G_0_handle       0x200224e8      0x4  Data  Gb  sensor_task.o [1]
SENSOR_X_0_handle       0x200224e4      0x4  Data  Gb  sensor_task.o [1]
SPI2_Error              0x0806e34d     0x8a  Code  Lc  BMI160_ACC_GYRO_Driver_HL.o [1]
SPI_CheckFlag_BSY       0x0806af15     0x20  Code  Lc  stm32f4xx_hal_spi.o [1]
SPI_WaitFlagStateUntilTimeout
                        0x0806ae85     0x90  Code  Lc  stm32f4xx_hal_spi.o [1]
SVC_Handler             0x0806d93d           Code  Gb  portasm.o [1]
SendLedEventToDeal      0x080478b1      0xc  Code  Gb  led_hal.o [1]
SendMsgQueueFromISR     0x0806a78f     0x40  Code  Lc  usart_drv.o [1]
SenseCorrect_09916      0x080818bd     0x8c  Code  Lc  AKDecomp.o [3]
SenseCorrect_8963       0x08081847     0x76  Code  Lc  AKDecomp.o [3]
Sensor_IO_Read          0x0806551d     0x14  Code  Gb  SensorTile.o [1]
Sensor_IO_SPI_CS_Disable
                        0x08065601     0x16  Code  Gb  SensorTile.o [1]
Sensor_IO_SPI_CS_Enable
                        0x080655eb     0x16  Code  Gb  SensorTile.o [1]
Sensor_IO_SPI_Read      0x08065583     0x68  Code  Gb  SensorTile.o [1]
Sensor_IO_SPI_Write     0x08065531     0x52  Code  Gb  SensorTile.o [1]
Sensor_IO_Write         0x08065509     0x14  Code  Gb  SensorTile.o [1]
SetDefaultNV            0x08080c61     0x26  Code  Gb  measure.o [1]
Sleep_Out               0x080831ac      0x4  Data  Lc  ams361ep01_dsi_vdo.o [1]
So3Util_muFromSO3       0x08071f31    0x25a  Code  Gb  So3Util.o [1]
So3Util_rodriguesSo3Exp
                        0x08071b8b     0xe4  Code  Lc  So3Util.o [1]
So3Util_sO3FromMu       0x08071db9    0x136  Code  Gb  So3Util.o [1]
So3Util_sO3FromTwoVec   0x08071c91    0x128  Code  Gb  So3Util.o [1]
Spi2Timeout             0x20012bb0      0x4  Data  Gb  BMI160_ACC_GYRO_Driver_HL.o [1]
StartCommandTask        0x08046721     0xa2  Code  Gb  command.o [1]
StartDebugUsartTask     0x0806a653     0x8c  Code  Gb  usart_drv.o [1]
StartLedTask            0x080477e9     0xc8  Code  Gb  led_hal.o [1]
StartSensorTask         0x0805bfd9    0x7ce  Code  Gb  sensor_task.o [1]
SysTick_Handler         0x08082db3      0x4  Code  Gb  stm32f4xx_it.o [1]
SystemClock_Config      0x0806042f     0xcc  Code  Gb  main.o [1]
SystemCoreClock         0x20012bc4      0x4  Data  Gb  system_stm32f4xx.o [1]
SystemInit              0x08083329     0x38  Code  Gb  system_stm32f4xx.o [1]
TCA6418_GPIO_BITMAP     0x20012afc     0x14  Data  Lc  gpio_exp.o [1]
TE_pin_normal_low       0x080831cc      0x4  Data  Lc  ams361ep01_dsi_vdo.o [1]
TIM1_UP_TIM10_IRQHandler
                        0x08082dc9      0x6  Code  Gb  stm32f4xx_it.o [1]
TIM2_IRQHandler         0x08082dc3      0x6  Code  Gb  stm32f4xx_it.o [1]
TIM_Base_SetConfig      0x0806db3f     0x90  Code  Gb  stm32f4xx_hal_tim.o [1]
Tim1PeriodElapsedHandle
                        0x08064a1b      0xa  Code  Gb  freertos_trace.o [1]
Tim1RunCounter          0x20022154      0x4  Data  Gb  freertos_trace.o [1]
UART_DMAAbortOnError    0x08069f1d     0x10  Code  Lc  stm32f4xx_hal_uart.o [1]
UART_EndRxTransfer      0x08069efd     0x1c  Code  Lc  stm32f4xx_hal_uart.o [1]
UART_Receive_IT         0x08069f2d     0x7e  Code  Lc  stm32f4xx_hal_uart.o [1]
UART_SetConfig          0x08069fb9    0x18e  Code  Lc  stm32f4xx_hal_uart.o [1]
UART_WaitOnFlagUntilTimeout
                        0x08069e9d     0x60  Code  Lc  stm32f4xx_hal_uart.o [1]
USART1_IRQHandler       0x08082e77      0x2  Code  Gb  stm32f4xx_it.o [1]
USART2_IRQHandler       0x08082e75      0x2  Code  Gb  stm32f4xx_it.o [1]
USART3_IRQHandler       0x08082ea1      0x2  Code  Gb  stm32f4xx_it.o [1]
USBD_COMP               0x20012984     0x3c  Data  Gb  usbd_comp.o [1]
USBD_COMP_CfgFSDesc     0x2001257c     0x5c  Data  Gb  usbd_comp.o [1]
USBD_COMP_CfgHSDesc     0x20012520     0x5c  Data  Gb  usbd_comp.o [1]
USBD_COMP_DataIn        0x0806cfcd     0x34  Code  Lc  usbd_comp.o [1]
USBD_COMP_DataOut       0x0806d001     0x3c  Code  Lc  usbd_comp.o [1]
USBD_COMP_DeInit        0x0806cf23     0x42  Code  Lc  usbd_comp.o [1]
USBD_COMP_DeviceQualifierDesc
                        0x20012b94      0xc  Data  Lc  usbd_comp.o [1]
USBD_COMP_EP0_RxReady   0x0806d03d     0x2c  Code  Lc  usbd_comp.o [1]
USBD_COMP_GetDeviceQualifierDescriptor
                        0x0806d081      0x8  Code  Gb  usbd_comp.o [1]
USBD_COMP_GetFSCfgDesc  0x0806d069      0x8  Code  Lc  usbd_comp.o [1]
USBD_COMP_GetHSCfgDesc  0x0806d071      0x8  Code  Lc  usbd_comp.o [1]
USBD_COMP_GetOtherSpeedCfgDesc
                        0x0806d079      0x8  Code  Lc  usbd_comp.o [1]
USBD_COMP_GetUsrStrDescriptor
                        0x0806d089     0x2e  Code  Gb  usbd_comp.o [1]
USBD_COMP_Init          0x0806ce95     0x84  Code  Lc  usbd_comp.o [1]
USBD_COMP_OtherSpeedCfgDesc
                        0x200125d8     0x5c  Data  Gb  usbd_comp.o [1]
USBD_COMP_ReceivePacket
                        0x0806d139     0x26  Code  Gb  usbd_comp.o [1]
USBD_COMP_RegisterInterface
                        0x0806d0d1      0xe  Code  Gb  usbd_comp.o [1]
USBD_COMP_SetRxBuffer   0x0806d0ff      0xc  Code  Gb  usbd_comp.o [1]
USBD_COMP_SetTxBuffer   0x0806d0df     0x10  Code  Gb  usbd_comp.o [1]
USBD_COMP_Setup         0x0806cf65     0x68  Code  Lc  usbd_comp.o [1]
USBD_COMP_TransmitPacket
                        0x0806d10b     0x2e  Code  Gb  usbd_comp.o [1]
USBD_COMP_VS_SetTxBuffer
                        0x0806d0ef     0x10  Code  Gb  usbd_comp.o [1]
USBD_ClrClassConfig     0x0807090f      0xa  Code  Gb  usbd_core.o [1]
USBD_CtlContinueRx      0x08070d65      0x2  Code  Gb  usbd_ioreq.o [1]
USBD_CtlContinueSendData
                        0x08070d43      0x2  Code  Gb  usbd_ioreq.o [1]
USBD_CtlError           0x0807110f     0x16  Code  Gb  usbd_ctlreq.o [1]
USBD_CtlPrepareRx       0x08070d53     0x12  Code  Gb  usbd_ioreq.o [1]
USBD_CtlReceiveStatus   0x08070d7f      0xa  Code  Gb  usbd_ioreq.o [1]
USBD_CtlSendData        0x08070d35      0xe  Code  Gb  usbd_ioreq.o [1]
USBD_CtlSendStatus      0x08070d75      0xa  Code  Gb  usbd_ioreq.o [1]
USBD_FS_ConfigStrDescriptor
                        0x08072ee3      0x8  Code  Gb  usbd_desc.o [1]
USBD_FS_DeviceDesc      0x20012b38     0x14  Data  Gb  usbd_desc.o [1]
USBD_FS_DeviceDescriptor
                        0x08072e75      0x8  Code  Gb  usbd_desc.o [1]
USBD_FS_InterfaceStrDescriptor
                        0x08072efb      0xa  Code  Gb  usbd_desc.o [1]
USBD_FS_LangIDStrDescriptor
                        0x08072e7d      0x8  Code  Gb  usbd_desc.o [1]
USBD_FS_ManufacturerStrDescriptor
                        0x08072e8f     0x24  Code  Gb  usbd_desc.o [1]
USBD_FS_ProductStrDescriptor
                        0x08072e85      0xa  Code  Gb  usbd_desc.o [1]
USBD_FS_SerialStrDescriptor
                        0x08072eb3     0x30  Code  Gb  usbd_desc.o [1]
USBD_GetDescriptor      0x08070fe1     0xf8  Code  Lc  usbd_ctlreq.o [1]
USBD_GetString          0x08071125     0x44  Code  Gb  usbd_ctlreq.o [1]
USBD_Init               0x08070855     0x46  Code  Gb  usbd_core.o [1]
USBD_Interface_fops_FS  0x20012b6c     0x10  Data  Gb  usbd_comp_if.o [1]
USBD_LL_ClearStallEP    0x0806d363      0xe  Code  Gb  usbd_conf.o [1]
USBD_LL_CloseEP         0x0806d347      0xe  Code  Gb  usbd_conf.o [1]
USBD_LL_DataInStage     0x080709d7     0xa4  Code  Gb  usbd_core.o [1]
USBD_LL_DataOutStage    0x08070971     0x66  Code  Gb  usbd_core.o [1]
USBD_LL_DevConnected    0x08070aff      0x4  Code  Gb  usbd_core.o [1]
USBD_LL_DevDisconnected
                        0x08070b03     0x12  Code  Gb  usbd_core.o [1]
USBD_LL_GetRxDataSize   0x0806d3b9      0x8  Code  Gb  usbd_conf.o [1]
USBD_LL_Init            0x0806d291     0x6e  Code  Gb  usbd_conf.o [1]
USBD_LL_IsStallEP       0x0806d371     0x1e  Code  Gb  usbd_conf.o [1]
USBD_LL_IsoINIncomplete
                        0x08070af7      0x4  Code  Gb  usbd_core.o [1]
USBD_LL_IsoOUTIncomplete
                        0x08070afb      0x4  Code  Gb  usbd_core.o [1]
USBD_LL_OpenEP          0x0806d333     0x14  Code  Gb  usbd_conf.o [1]
USBD_LL_PrepareReceive  0x0806d3ab      0xe  Code  Gb  usbd_conf.o [1]
USBD_LL_Reset           0x08070a7b     0x42  Code  Gb  usbd_core.o [1]
USBD_LL_Resume          0x08070acf      0x4  Code  Gb  usbd_core.o [1]
USBD_LL_SOF             0x08070adb     0x1c  Code  Gb  usbd_core.o [1]
USBD_LL_SetSpeed        0x08070abd      0x6  Code  Gb  usbd_core.o [1]
USBD_LL_SetUSBAddress   0x0806d38f      0xe  Code  Gb  usbd_conf.o [1]
USBD_LL_SetupStage      0x08070919     0x58  Code  Gb  usbd_core.o [1]
USBD_LL_StallEP         0x0806d355      0xe  Code  Gb  usbd_conf.o [1]
USBD_LL_Start           0x0806d317      0xe  Code  Gb  usbd_conf.o [1]
USBD_LL_Stop            0x0806d325      0xe  Code  Gb  usbd_conf.o [1]
USBD_LL_Suspend         0x08070ac3      0xc  Code  Gb  usbd_core.o [1]
USBD_LL_Transmit        0x0806d39d      0xe  Code  Gb  usbd_conf.o [1]
USBD_LangIDDesc         0x20012bc8      0x4  Data  Gb  usbd_desc.o [1]
USBD_ParseSetupRequest  0x080710e7     0x28  Code  Gb  usbd_ctlreq.o [1]
USBD_RegisterClass      0x0807089b     0x24  Code  Gb  usbd_core.o [1]
USBD_SetClassConfig     0x080708f9     0x16  Code  Gb  usbd_core.o [1]
USBD_Start              0x080708d1      0xa  Code  Gb  usbd_core.o [1]
USBD_StdDevReq          0x08070d95    0x13c  Code  Gb  usbd_ctlreq.o [1]
USBD_StdEPReq           0x08070f0d     0xc8  Code  Gb  usbd_ctlreq.o [1]
USBD_StdItfReq          0x08070ed5     0x32  Code  Gb  usbd_ctlreq.o [1]
USBD_Stop               0x080708db     0x12  Code  Gb  usbd_core.o [1]
USBD_StrDesc            0x20020964    0x200  Data  Gb  usbd_desc.o [1]
USBD_UsrStrDesc         0x20020b64    0x200  Data  Lc  usbd_comp.o [1]
USB_ActivateEndpoint    0x080733c5     0x76  Code  Gb  stm32f4xx_ll_usb.o [1]
USB_ActivateSetup       0x080739cf     0x2e  Code  Gb  stm32f4xx_ll_usb.o [1]
USB_CoreInit            0x08073181     0x66  Code  Gb  stm32f4xx_ll_usb.o [1]
USB_CoreReset           0x08073a2d     0x2a  Code  Lc  stm32f4xx_ll_usb.o [1]
USB_DeactivateEndpoint  0x0807343b     0x5c  Code  Gb  stm32f4xx_ll_usb.o [1]
USB_DevConnect          0x08073947      0xe  Code  Gb  stm32f4xx_ll_usb.o [1]
USB_DevDisconnect       0x08073955      0xc  Code  Gb  stm32f4xx_ll_usb.o [1]
USB_DevInit             0x08073221    0x132  Code  Gb  stm32f4xx_ll_usb.o [1]
USB_DisableGlobalInt    0x080731ef      0x6  Code  Gb  stm32f4xx_ll_usb.o [1]
USB_EP0StartXfer        0x080736c5    0x132  Code  Gb  stm32f4xx_ll_usb.o [1]
USB_EP0_OutStart        0x080739fd     0x30  Code  Gb  stm32f4xx_ll_usb.o [1]
USB_EPClearStall        0x0807388f     0x5a  Code  Gb  stm32f4xx_ll_usb.o [1]
USB_EPSetStall          0x08073841     0x4e  Code  Gb  stm32f4xx_ll_usb.o [1]
USB_EPStartXfer         0x08073497    0x22e  Code  Gb  stm32f4xx_ll_usb.o [1]
USB_EnableGlobalInt     0x080731e7      0x8  Code  Gb  stm32f4xx_ll_usb.o [1]
USB_FlushRxFifo         0x08073371     0x1a  Code  Gb  stm32f4xx_ll_usb.o [1]
USB_FlushTxFifo         0x08073353     0x1e  Code  Gb  stm32f4xx_ll_usb.o [1]
USB_GetDevSpeed         0x08073391     0x34  Code  Gb  stm32f4xx_ll_usb.o [1]
USB_GetMode             0x080739c7      0x8  Code  Gb  stm32f4xx_ll_usb.o [1]
USB_ReadDevAllInEpInterrupt
                        0x08073983      0xe  Code  Gb  stm32f4xx_ll_usb.o [1]
USB_ReadDevAllOutEpInterrupt
                        0x08073975      0xe  Code  Gb  stm32f4xx_ll_usb.o [1]
USB_ReadDevInEPInterrupt
                        0x080739a5     0x22  Code  Gb  stm32f4xx_ll_usb.o [1]
USB_ReadDevOutEPInterrupt
                        0x08073991     0x14  Code  Gb  stm32f4xx_ll_usb.o [1]
USB_ReadInterrupts      0x0807396d      0x8  Code  Gb  stm32f4xx_ll_usb.o [1]
USB_ReadPacket          0x08073823     0x1e  Code  Gb  stm32f4xx_ll_usb.o [1]
USB_SetCurrentMode      0x080731fb     0x26  Code  Gb  stm32f4xx_ll_usb.o [1]
USB_SetDevAddress       0x0807392b     0x12  Code  Gb  stm32f4xx_ll_usb.o [1]
USB_SetDevSpeed         0x0807338b      0x6  Code  Gb  stm32f4xx_ll_usb.o [1]
USB_StopDevice          0x080738e9     0x42  Code  Gb  stm32f4xx_ll_usb.o [1]
USB_WritePacket         0x080737fd     0x26  Code  Gb  stm32f4xx_ll_usb.o [1]
U_MsgQueue              0x200218d0     0x84  Data  Gb  usart_drv.o [1]
UsageFault_Handler      0x08082da1      0x6  Code  Gb  stm32f4xx_it.o [1]
UsartMsgQueueHandle     0x20021b9c      0x4  Data  Lc  usart_drv.o [1]
UserRxBufferFS          0x20022054     0x40  Data  Gb  usbd_comp_if.o [1]
VLIN1_ctrl              0x0808317c      0xc  Data  Lc  ams361ep01_dsi_vdo.o [1]
VR_flash_erase          0x08060755    0x184  Code  Gb  flash_drv.o [1]
VR_flash_read           0x08060729     0x28  Code  Gb  flash_drv.o [1]
VR_flash_write          0x080608d9    0x120  Code  Gb  flash_drv.o [1]
ValueTimerForRunTimeStats
                        0x08064a25      0x6  Code  Gb  freertos_trace.o [1]
Vector3d_add            0x0807031b     0x2a  Code  Gb  Vector3d.o [1]
Vector3d_cross          0x0807036f     0x34  Code  Gb  Vector3d.o [1]
Vector3d_dot            0x080702bd     0x26  Code  Gb  Vector3d.o [1]
Vector3d_largestAbsComponent
                        0x080703d7     0x5a  Code  Gb  Vector3d.o [1]
Vector3d_length         0x080702e3     0x38  Code  Gb  Vector3d.o [1]
Vector3d_normalize      0x08070277     0x3c  Code  Gb  Vector3d.o [1]
Vector3d_ortho          0x080703a3     0x34  Code  Gb  Vector3d.o [1]
Vector3d_scale          0x08070251     0x26  Code  Gb  Vector3d.o [1]
Vector3d_set            0x08070213      0xe  Code  Gb  Vector3d.o [1]
Vector3d_setComponent   0x08070221     0x18  Code  Gb  Vector3d.o [1]
Vector3d_setZero        0x08070239      0xa  Code  Gb  Vector3d.o [1]
Vector3d_set_o          0x08070243      0xe  Code  Gb  Vector3d.o [1]
Vector3d_sub            0x08070345     0x2a  Code  Gb  Vector3d.o [1]
WWDG_IRQHandler         0x08082ea5      0x6  Code  Gb  stm32f4xx_it.o [1]
WaitUSBPulgInCallback   0x0805d25b      0x6  Code  Lc  PowerManager_system.o [1]
WaitVideoOutCallback    0x0805d261      0x6  Code  Lc  PowerManager_system.o [1]
XA_GPIO_EXTI_Callback   0x08046fd9     0x7a  Code  Gb  gpio.o [1]
XB_GPIO_EXTI_Callback   0x08047053     0x62  Code  Gb  gpio.o [1]
XC_GPIO_EXTI_Callback   0x080470bb     0x66  Code  Gb  gpio.o [1]
X_Get_Axes_k6           0x080590dd     0x72  Code  Lc  gSensor_Calibate.o [1]
YAS537Callback          0x20012ae4     0x18  Data  Gb  YAS537_MAG_driver_HL.o [1]
YAS537Drv               0x20012684     0x50  Data  Gb  YAS537_MAG_driver_HL.o [1]
YAS537_Check_WhoAmI     0x0807c5d1     0x38  Code  Lc  YAS537_MAG_driver_HL.o [1]
YAS537_Data             0x200221d4      0x4  Data  Lc  x_nucleo_iks01a1_magneto.o [1]
YAS537_DeInit           0x0807c425     0x32  Code  Lc  YAS537_MAG_driver_HL.o [1]
YAS537_Get_Accuracy     0x0807c827      0xa  Code  Lc  YAS537_MAG_driver_HL.o [1]
YAS537_Get_Axes         0x0807c609     0x78  Code  Lc  YAS537_MAG_driver_HL.o [1]
YAS537_Get_AxesRaw      0x0807c681     0x5a  Code  Lc  YAS537_MAG_driver_HL.o [1]
YAS537_Get_ODR          0x0807c6e5     0x46  Code  Lc  YAS537_MAG_driver_HL.o [1]
YAS537_Get_Sensitivity  0x0807c6db      0x8  Code  Lc  YAS537_MAG_driver_HL.o [1]
YAS537_Get_User_Calibration
                        0x0807c83f     0x30  Code  Lc  YAS537_MAG_driver_HL.o [1]
YAS537_Get_WhoAmI       0x0807c5a5     0x2c  Code  Lc  YAS537_MAG_driver_HL.o [1]
YAS537_Init             0x0807c391     0x86  Code  Lc  YAS537_MAG_driver_HL.o [1]
YAS537_Sensor_Disable   0x0807c53d     0x68  Code  Lc  YAS537_MAG_driver_HL.o [1]
YAS537_Sensor_Enable    0x0807c45f     0xde  Code  Lc  YAS537_MAG_driver_HL.o [1]
YAS537_Sensor_Selftest  0x0807c7e1     0x46  Code  Lc  YAS537_MAG_driver_HL.o [1]
YAS537_Set_Mode         0x0807c78f     0x38  Code  Lc  YAS537_MAG_driver_HL.o [1]
YAS537_Set_ODR          0x0807c72b     0x40  Code  Lc  YAS537_MAG_driver_HL.o [1]
YAS537_Set_ODR_Value    0x0807c76b     0x24  Code  Lc  YAS537_MAG_driver_HL.o [1]
YAS537_Set_User_Calibration
                        0x0807c831      0xe  Code  Lc  YAS537_MAG_driver_HL.o [1]
YAS537_TRANSFORMATION   0x0807c20c     0x48  Data  Lc  yas_mag_drv-yas537.o [1]
_EncodingSb_Mbtowc      0x0807080f     0x30  Code  Gb  xencoding_sb.o [4]
_EncodingSb_Wctomb      0x080707f5     0x1a  Code  Gb  xencoding_sb.o [4]
_GenldFull              0x0805f91b    0x24c  Code  Lc  xprintffull.o [4]
_IsdstStr               0x200123ec      0x4  Data  Gb  setlocale.o [4]
_LdtobFull              0x0805f519    0x3fc  Code  Lc  xprintffull.o [4]
_LitobFull              0x0805f411    0x106  Code  Lc  xprintffull.o [4]
_LocaleC_isalpha        0x080707c9     0x16  Code  Gb  xlocale_c.o [4]
_LocaleC_isspace        0x080707df     0x14  Code  Gb  xlocale_c.o [4]
_LocaleC_tolower        0x080692f9      0xc  Code  Gb  xlocale_c.o [4]
_LocaleEncoding         0x080692e7      0xe  Code  Gb  setlocale.o [4]
_LocaleForCat           0x080692d5     0x12  Code  Gb  setlocale.o [4]
_LocaleReturnString     0x2001240c     0x50  Data  Lc  setlocale.o [4]
_Locale_Profile         0x200123f0     0x1c  Data  Gb  setlocale.o [4]
_Locale_aeabi_lconv     0x200122b8     0x38  Data  Gb  localeconv.o [4]
_Locale_lconv           0x20012268     0x50  Data  Gb  localeconv.o [4]
_Mbtowc                 0x080698a9     0x20  Code  Gb  xmbtowc.o [4]
_PrintfFull             0x0805ea61    0x618  Code  Gb  xprintffull.o [4]
_Prout                  0x080834b9     0x16  Code  Gb  xprout.o [4]
_PutcharsFull           0x0805fb67     0x2e  Code  Lc  xprintffull.o [4]
_PutstrFull             0x0805f0ff    0x30c  Code  Lc  xprintffull.o [4]
_Rand_idx               0x200121e4      0x4  Data  Lc  rand.o [4]
_Rand_rv                0x200121e8     0x80  Data  Lc  rand.o [4]
_Randinit               0x200121dc      0x1  Data  Gb  rand.o [4]
_Randseed               0x200121e0      0x4  Data  Gb  rand.o [4]
_SNProut                0x0804779f     0x1a  Code  Gb  xsnprout.o [4]
_SProut                 0x08047a0b      0xa  Code  Gb  xsprout.o [4]
_Stoflt                 0x0806dd31    0x1b8  Code  Gb  xstoflt.o [4]
_Stopfx                 0x0806dbfd    0x134  Code  Gb  xstopfx.o [4]
_Stoxflt                0x0806e0e9    0x1e2  Code  Gb  xstoxflt.o [4]
_TzoneStr               0x200123e8      0x4  Data  Gb  setlocale.o [4]
_Wctomb                 0x080698e9     0x1a  Code  Gb  xwctomb.o [4]
__aeabi_cdcmpeq         0x08071a95           Code  Gb  DblCmpEq.o [5]
__aeabi_cdcmple         0x08065a35           Code  Gb  DblCmpLe.o [5]
__aeabi_cdrcmple        0x08069945           Code  Gb  DblCmpGe.o [5]
__aeabi_d2f             0x0805646d           Code  Gb  DblToFlt.o [5]
__aeabi_d2iz            0x08065d89           Code  Gb  DblToI32.o [5]
__aeabi_d2uiz           0x08065db5           Code  Gb  DblToI32.o [5]
__aeabi_dadd            0x0806594d           Code  Gb  DblAdd.o [5]
__aeabi_ddiv            0x08065a65           Code  Gb  DblDiv.o [5]
__aeabi_dmul            0x080657a9           Code  Gb  DblMul.o [5]
__aeabi_dsub            0x08065629           Code  Gb  DblSub.o [5]
__aeabi_errno_addr      0x080692c9      0x6  Code  Gb  errno.o [4]
__aeabi_f2d             0x080519cd           Code  Gb  FltToDbl.o [5]
__aeabi_i2d             0x08069a89           Code  Gb  I32ToDbl.o [5]
__aeabi_l2f             0x080691a1           Code  Gb  I64ToFlt.o [5]
__aeabi_ldiv0           0x0806d3c1           Code  Gb  I64DivZer.o [6]
__aeabi_ldivmod         0x08060fcd           Code  Gb  I64DivMod.o [6]
__aeabi_memclr          0x080590d5           Code  Gb  ABImemclr.o [6]
__aeabi_memclr4         0x08047a05           Code  Gb  ABImemclr4.o [6]
__aeabi_memset          0x08060cb9           Code  Gb  ABImemset.o [6]
__aeabi_memset4         0x08049f65           Code  Gb  ABImemset48.o [6]
__aeabi_memset8         0x08049f65           Code  Gb  ABImemset48.o [6]
__aeabi_ui2d            0x08069a9d           Code  Gb  I32ToDbl.o [5]
__aeabi_ul2f            0x080691bd           Code  Gb  I64ToFlt.o [5]
__aeabi_uldivmod        0x08061011           Code  Gb  I64DivMod.o [6]
__as_entries_start      0xffffffff            --   Gb  command line/config [2]
__as_table_start        0xffffffff            --   Gb  command line/config [2]
__audio_alc5665_power_supply
                        0x0804e967     0x4e  Code  Lc  audio_alc5665_driver.o [1]
__audio_path_setup      0x0804e269     0x5a  Code  Lc  htc_audio_path_service.o [1]
__cmain                 0x08083429           Code  Gb  cmain.o [6]
__data_GetMemChunk      0x08064fad     0x2c  Code  Gb  xgetmemchunk.o [4]
__exit                  0x0806e301     0x14  Code  Gb  exit.o [7]
__htc_3dof_send_work_task_func
                        0x08063fb5     0x24  Code  Gb  htc_3dof_transfer_service.o [1]
__htc_3dof_tran_service_initial
                        0x08064203     0x8c  Code  Lc  htc_3dof_transfer_service.o [1]
__iar_Atan              0x08073eb9    0x158  Code  Gb  xatan.o [5]
__iar_Dint              0x080740a9     0x7e  Code  Gb  xdint.o [5]
__iar_Dnorm             0x08069903     0x42  Code  Gb  xdnorm.o [5]
__iar_Dscale            0x08069975    0x114  Code  Gb  xdscale.o [5]
__iar_Dtentox           0x0806df45    0x13e  Code  Gb  xdtento.o [5]
__iar_Dtest             0x08073cc5     0x30  Code  Gb  xdtest.o [5]
__iar_Dunscale          0x08071ab5     0x56  Code  Gb  xdunscal.o [5]
__iar_Errno             0x20012bcc      0x4  Data  Gb  errno.o [4]
__iar_Locale_lconv_init
                        0x08069ab9     0x3a  Code  Gb  localeconv.o [4]
__iar_Mbcurmax          0x080698df      0xa  Code  Gb  xmbcurmax.o [4]
__iar_Memchr            0x08069271           Code  Gb  memchr.o [6]
__iar_Memset            0x08060cb9           Code  Gb  ABImemset.o [6]
__iar_Memset4_word      0x08049f6d           Code  Gb  ABImemset48.o [6]
__iar_Memset8_word      0x08049f6d           Code  Gb  ABImemset48.o [6]
__iar_Memset_word       0x08060cc1           Code  Gb  ABImemset.o [6]
__iar_Quad              0x08073d05    0x12c  Code  Gb  xquad.o [5]
__iar_Sin               0x08072a09    0x452  Code  Gb  xsin.o [5]
__iar_Stdout            0x20012908     0x40  Data  Gb  xfiles.o [4]
__iar_Stod              0x08064fa1      0x4  Code  Gb  xstod.o [5]
__iar_Stodx             0x08064e3d    0x14e  Code  Gb  xstod.o [5]
__iar_Stolx             0x080646bd     0x88  Code  Gb  xstol.o [4]
__iar_Stoul             0x0805d975      0x4  Code  Gb  xstoul.o [4]
__iar_Stoulx            0x0805d831    0x13e  Code  Gb  xstoul.o [4]
__iar_Strchr            0x080698c9           Code  Gb  strchr.o [6]
__iar_d2uiz             0x08065dc1           Code  Gb  DblToI32.o [5]
__iar_dadd              0x08065961           Code  Gb  DblAdd.o [5]
__iar_data_init3        0x080833b9     0x28  Code  Gb  data_init.o [6]
__iar_dlfree            0x08057fe9    0x510  Code  Gb  dlmalloc.o [4]
__iar_dlib_perthread_access
                        0x080707f3      0x2  Code  Gb  xtls.o [4]
__iar_dlmalloc          0x08057d33    0x2aa  Code  Gb  dlmalloc.o [4]
__iar_dsub              0x0806563d           Code  Gb  DblSub.o [5]
__iar_dsubStart         0x0806564f           Code  Gb  DblSub.o [5]
__iar_edom              0x080729fd           Code  Gb  iarEdom.o [6]
__iar_fmod              0x08074129           Code  Gb  fmod.o [5]
__iar_fmodl             0x08074129           Code  Gb  fmod.o [5]
__iar_gm_               0x20020f54    0x1d8  Data  Gb  dlmalloc.o [4]
__iar_init_vfp          0x0808340d           Code  Gb  fpinit_M.o [5]
__iar_lz77_init3        0x08082bbb    0x160  Code  Gb  lz77_init.o [6]
__iar_program_start     0x080835a1           Code  Gb  cstartup_M.o [6]
__iar_sqrt              0x080706b5           Code  Gb  sqrt.o [5]
__iar_strcmp            0x08047c0d           Code  Gb  strcmp_unaligned.o [6]
__iar_ui2d              0x08069aa1           Code  Gb  I32ToDbl.o [5]
__iar_ul2f              0x080691c9           Code  Gb  I64ToFlt.o [5]
__iar_unaligned___aeabi_memcpy
                        0x08049eed           Code  Gb  ABImemcpy_unaligned.o [6]
__iar_unaligned___aeabi_memcpy4
                        0x08049f0d           Code  Gb  ABImemcpy_unaligned.o [6]
__iar_unaligned___aeabi_memcpy8
                        0x08049f0d           Code  Gb  ABImemcpy_unaligned.o [6]
__iar_unaligned_strcmp  0x08047c0d           Code  Gb  strcmp_unaligned.o [6]
__iar_unaligned_strcpy  0x08060d39           Code  Gb  strcpy_unaligned.o [6]
__iar_unaligned_strncpy
                        0x0805e211           Code  Gb  strncpy_unaligned.o [6]
__iar_vfp___iar_Sin     0x08072e61     0x12  Code  Gb  xsin.o [5]
__iar_vfp_acos          0x08073b85     0x10  Code  Gb  acos.o [5]
__iar_vfp_asin          0x08073cb5     0x10  Code  Gb  asin.o [5]
__iar_vfp_atof          0x0805645d     0x10  Code  Gb  atof.o [5]
__iar_vfp_cos           0x080707b7     0x12  Code  Gb  cos.o [5]
__iar_vfp_fmin          0x080728d9     0x14  Code  Gb  fmin.o [5]
__iar_vfp_sin           0x080707a5     0x12  Code  Gb  sin.o [5]
__iar_vfp_sqrt          0x080706a5           Code  Gb  sqrt.o [5]
__iar_vfp_sqrtl         0x080706a5           Code  Gb  sqrt.o [5]
__iar_zero_init3        0x080472fb     0x22  Code  Gb  zero_init3.o [6]
__ieee754_expf          0x0806ede5    0x192  Code  Gb  mymath.o [1]
__low_level_init        0x08083443      0x4  Code  Gb  low_level_init.o [4]
__pwrmgr_create_state_machine_main_thread
                        0x08063871     0x2a  Code  Gb  PowerManager_state_machine.o [1]
__pwrmgr_sr_linkedlist_get_item
                        0x0805ddcd     0x1c  Code  Lc  PowerManager_notify_func.o [1]
__pwrmgr_stat_change_reason_string
                        0x200124c4     0x5c  Data  Gb  PowerManager_state_machine.o [1]
__pwrmgr_stat_machine_mode_string
                        0x200129dc     0x1c  Data  Gb  PowerManager_state_machine.o [1]
__pwrmgr_state_machine_main_func
                        0x08063757     0x66  Code  Gb  PowerManager_state_machine.o [1]
__pwrmgr_state_machine_switch
                        0x08063611    0x13e  Code  Gb  PowerManager_state_machine.o [1]
__show_regs             0x08082339     0xb0  Code  Lc  hlog_excep.o [1]
__sm_data               0x200129c0     0x1c  Data  Gb  PowerManager_state_machine.o [1]
__sr_data               0x20022560      0xc  Data  Lc  PowerManager_notify_func.o [1]
__system_command_work_task_func
                        0x0806be41     0x7e  Code  Gb  system_command.o [1]
__system_property_work_task_func
                        0x0806b637     0x38  Code  Gb  system_property.o [1]
__vector_table          0x08040000           Data  Gb  startup_stm32f412rx.o [1]
__write_logbuf_force    0x08048417     0x4a  Code  Gb  hlog_main.o [1]
_call_main              0x08083435           Code  Gb  cmain.o [6]
_exit                   0x0808344d           Code  Gb  cexit.o [6]
_main                   0x0808343f           Code  Gb  cmain.o [6]
a                       0x08074068     0x40  Data  Lc  xatan.o [5]
abort                   0x08064fa5      0x6  Code  Gb  abort.o [4]
abs                     0x08065621      0x8  Code  Gb  abs.o [4]
accObservationFunctionForNumericalJacobian
                        0x080701b5     0x1a  Code  Lc  OrientationEKF.o [1]
accelEvent              0x20022338     0x20  Data  Gb  sensor_task.o [1]
accel_k6andtest         0x0805a625     0x26  Code  Gb  gSensor_Calibate.o [1]
accuracy_akm            0x200222cc      0x1  Data  Lc  AKM099XX_MAG_driver_HL.o [1]
accuracy_m              0x20012a3c      0x1  Data  Lc  YAS537_MAG_driver_HL.o [1]
acos                    0x08073a75     0xfa  Code  Gb  acos.o [5]
adc1_data               0x200224f0     0x10  Data  Lc  htc_adc_func.o [1]
addSample               0x08072945     0x10  Code  Gb  LowPassFilter.o [1]
addWeightedSample       0x08072955     0x8e  Code  Gb  LowPassFilter.o [1]
ak099xx_get_data        0x0808099d     0x70  Code  Gb  aks_mag_ak099xx.o [1]
ak099xx_get_info        0x08080929     0x2a  Code  Gb  aks_mag_ak099xx.o [1]
ak099xx_get_mode        0x08080a0d     0x20  Code  Gb  aks_mag_ak099xx.o [1]
ak099xx_get_whoami      0x08080a2d     0x24  Code  Gb  aks_mag_ak099xx.o [1]
ak099xx_init            0x080808d3     0x56  Code  Gb  aks_mag_ak099xx.o [1]
ak099xx_self_test       0x08080a51    0x174  Code  Gb  aks_mag_ak099xx.o [1]
ak099xx_set_mode        0x08080889     0x10  Code  Lc  aks_mag_ak099xx.o [1]
ak099xx_soft_reset      0x08080899      0xe  Code  Gb  aks_mag_ak099xx.o [1]
ak099xx_start           0x08080953     0x46  Code  Gb  aks_mag_ak099xx.o [1]
ak099xx_stop            0x08080999      0x4  Code  Gb  aks_mag_ak099xx.o [1]
akl_setv_mag            0x0808056d     0xa4  Code  Lc  akl_apis.o [1]
akmPmNotifyData         0x200222b0     0x1c  Data  Lc  AKM099XX_MAG_driver_HL.o [1]
akmSensor_notify_callback
                        0x0807f4b9     0xb4  Code  Gb  AKM099XX_MAG_driver_HL.o [1]
akm_fst_test_data       0x080808b7     0x1c  Code  Lc  aks_mag_ak099xx.o [1]
akm_nv_data             0x200222f8     0x20  Data  Lc  AKM099XX_MAG_driver_HL.o [1]
alc5665_calibration_1_list
                        0x0804f2e8     0x3c  Data  Lc  audio_alc5665_driver.o [1]
alc5665_calibration_50_list
                        0x0804f324      0xc  Data  Lc  audio_alc5665_driver.o [1]
alc5665_evm_init_list   0x0804f168     0xac  Data  Lc  audio_alc5665_driver.o [1]
alc5665_evm_xc_init_list
                        0x0804f214     0xd4  Data  Lc  audio_alc5665_driver.o [1]
alc5665_hdmi_path_list  0x0804f330     0x14  Data  Lc  audio_alc5665_driver.o [1]
alc5665_loopback_list   0x0804f368     0x14  Data  Lc  audio_alc5665_driver.o [1]
alc5665_lout_mute_list  0x0804f37c      0x8  Data  Lc  audio_alc5665_driver.o [1]
alc5665_lout_unmute_list
                        0x0804f384      0x8  Data  Lc  audio_alc5665_driver.o [1]
alc5665_usb_path_list   0x0804f344     0x14  Data  Lc  audio_alc5665_driver.o [1]
alc5665_usb_plug_list   0x0804f358      0x8  Data  Lc  audio_alc5665_driver.o [1]
alc5665_usb_unplug_list
                        0x0804f360      0x8  Data  Lc  audio_alc5665_driver.o [1]
algo_update             0x0807ae07    0x23e  Code  Lc  yas_mag_calib_min.o [1]
alt5665_audio_calibration_reg
                        0x0804e6e7     0x50  Code  Lc  audio_alc5665_driver.o [1]
alt5665_audio_hotplug_noise
                        0x0804e737     0x6e  Code  Gb  audio_alc5665_driver.o [1]
alt5665_audio_init_reg  0x0804e6c5     0x22  Code  Lc  audio_alc5665_driver.o [1]
alt5665_audio_path_set  0x0804e87d     0xe2  Code  Gb  audio_alc5665_driver.o [1]
alt5665_regs_set        0x0804e67f     0x46  Code  Lc  audio_alc5665_driver.o [1]
ams361ep01_dsi_vdo_lcm_drv
                        0x20012768     0x48  Data  Gb  ams361ep01_dsi_vdo.o [1]
anx7737_i2c_read        0x0804e1d5     0x56  Code  Gb  anx7737.o [1]
anx_test_cmd            0x08042489     0x4a  Code  Gb  command.o [1]
anx_test_usage          0x0804243d      0x8  Code  Gb  command.o [1]
appendFrame             0x08070689      0xa  Code  Gb  GyroscopeBiasEstimator.o [1]
arm_cos_f32             0x0806ef99     0x20  Code  Gb  mymath.o [1]
arm_sin_f32             0x0806ef79     0x1e  Code  Gb  mymath.o [1]
arm_sqrtf               0x08067a19      0x6  Code  Lc  fusion.o [1]
arm_sqrtf               0x0806ebc5      0x6  Code  Lc  quat.o [1]
asin                    0x08073b95    0x11a  Code  Gb  asin.o [5]
atoi                    0x080472a5      0x8  Code  Gb  atoi.o [4]
audio_aj_detect         0x0804e30f     0x28  Code  Gb  htc_audio_path_service.o [1]
audio_alc4040_audio_path_set
                        0x08060db5     0x7c  Code  Gb  audio_alc4040_driver.o [1]
audio_alc4040_driver_init
                        0x08060e39     0x46  Code  Gb  audio_alc4040_driver.o [1]
audio_alc5665_amp_power_control
                        0x0804e7af     0x1c  Code  Lc  audio_alc5665_driver.o [1]
audio_alc5665_audio_amp_power_get
                        0x0804e875      0x8  Code  Gb  audio_alc5665_driver.o [1]
audio_alc5665_audio_amp_power_set
                        0x0804e7cb     0x36  Code  Gb  audio_alc5665_driver.o [1]
audio_alc5665_audio_power_get
                        0x0804e86d      0x8  Code  Gb  audio_alc5665_driver.o [1]
audio_alc5665_audio_power_set
                        0x0804e827     0x34  Code  Gb  audio_alc5665_driver.o [1]
audio_alc5665_driver_init
                        0x0804e9b5    0x1a2  Code  Gb  audio_alc5665_driver.o [1]
audio_alc5665_i2c_read  0x0804e5c9     0x5a  Code  Gb  audio_alc5665_driver.o [1]
audio_alc5665_i2c_write
                        0x0804e623     0x4c  Code  Gb  audio_alc5665_driver.o [1]
audio_alc5665_power_control
                        0x0804e801     0x26  Code  Lc  audio_alc5665_driver.o [1]
audio_output_type_set   0x0804e2f7     0x18  Code  Gb  htc_audio_path_service.o [1]
audio_path_get          0x0804e37f      0xa  Code  Gb  htc_audio_path_service.o [1]
audio_path_service_func
                        0x0804e2c3     0x34  Code  Gb  htc_audio_path_service.o [1]
audio_path_service_init
                        0x0804e389     0xca  Code  Gb  htc_audio_path_service.o [1]
audio_path_set          0x0804e337     0x18  Code  Gb  htc_audio_path_service.o [1]
audio_test_cmd          0x08042655    0x29a  Code  Gb  command.o [1]
audio_test_usage        0x08042525      0x8  Code  Gb  command.o [1]
axisInfo2pat            0x08081029     0x84  Code  Lc  akl_nonos_ext.o [1]
batt_data               0x200222d4     0x24  Data  Lc  PowerManager_battery.o [1]
batt_update_data        0x20022584      0x8  Data  Lc  PowerManager_battery.o [1]
bl_header               0x08040fd0     0x10  Data  Gb  sys_header.o [1]
bmi160_accel_mode       0x080673bf      0x4  Code  Gb  BMI160_ACC_GYRO_Driver_Api.o [1]
bmi160_delay_ms         0x0806e5a5      0x4  Code  Gb  BMI160_ACC_GYRO_Driver_HL.o [1]
bmi160_get_accel_output_data_rate
                        0x08065f99     0x1a  Code  Gb  BMI160_ACC_GYRO_Driver.o [1]
bmi160_get_accel_power_mode_stat
                        0x08065eb3     0x1a  Code  Gb  BMI160_ACC_GYRO_Driver.o [1]
bmi160_get_accel_range  0x080660f9     0x1a  Code  Gb  BMI160_ACC_GYRO_Driver.o [1]
bmi160_get_gyro_output_data_rate
                        0x08066165     0x1a  Code  Gb  BMI160_ACC_GYRO_Driver.o [1]
bmi160_get_gyro_power_mode_stat
                        0x08065e97     0x1c  Code  Gb  BMI160_ACC_GYRO_Driver.o [1]
bmi160_get_gyro_range   0x08066217     0x1c  Code  Gb  BMI160_ACC_GYRO_Driver.o [1]
bmi160_get_mag_power_mode_stat
                        0x0806639d     0x1c  Code  Gb  BMI160_ACC_GYRO_Driver.o [1]
bmi160_get_ptr          0x080663b9      0x6  Code  Gb  BMI160_ACC_GYRO_Driver.o [1]
bmi160_get_sensor_time  0x08065f53     0x38  Code  Gb  BMI160_ACC_GYRO_Driver.o [1]
bmi160_gyro_mode        0x080673c3      0x4  Code  Gb  BMI160_ACC_GYRO_Driver_Api.o [1]
bmi160_init             0x08065e21     0x36  Code  Gb  BMI160_ACC_GYRO_Driver.o [1]
bmi160_init_gpio        0x080672f9     0xb4  Code  Gb  BMI160_ACC_GYRO_Driver_Api.o [1]
bmi160_init_sensor      0x08065de1     0x1c  Code  Gb  BMI160_ACC_GYRO_Driver.o [1]
bmi160_mag_init         0x08067625     0x96  Code  Gb  BMI160_ACC_GYRO_Driver_Api.o [1]
bmi160_mag_manual_disable
                        0x080677e3     0x48  Code  Gb  BMI160_ACC_GYRO_Driver_Api.o [1]
bmi160_mag_manual_enable
                        0x0806783f     0x1a  Code  Gb  BMI160_ACC_GYRO_Driver_Api.o [1]
bmi160_mag_mode         0x080673c7      0x4  Code  Gb  BMI160_ACC_GYRO_Driver_Api.o [1]
bmi160_mag_read_reg     0x08067761     0x74  Code  Gb  BMI160_ACC_GYRO_Driver_Api.o [1]
bmi160_mag_write_reg    0x08067707     0x5a  Code  Gb  BMI160_ACC_GYRO_Driver_Api.o [1]
bmi160_notify_callback  0x080673cb    0x146  Code  Gb  BMI160_ACC_GYRO_Driver_Api.o [1]
bmi160_offset           0x200220d8     0x40  Data  Gb  BMI160_ACC_GYRO_Driver_Api.o [1]
bmi160_postinit         0x08067517     0x30  Code  Gb  BMI160_ACC_GYRO_Driver_Api.o [1]
bmi160_read_accel_xyz   0x08065efd     0x24  Code  Gb  BMI160_ACC_GYRO_Driver.o [1]
bmi160_read_gyro_xyz    0x08065ed9     0x24  Code  Gb  BMI160_ACC_GYRO_Driver.o [1]
bmi160_read_reg         0x08065e71     0x1a  Code  Gb  BMI160_ACC_GYRO_Driver.o [1]
bmi160_set_accel_bw     0x08066073     0x30  Code  Gb  BMI160_ACC_GYRO_Driver.o [1]
bmi160_set_accel_output_data_rate
                        0x08065fb5     0xac  Code  Gb  BMI160_ACC_GYRO_Driver.o [1]
bmi160_set_accel_range  0x08066121     0x44  Code  Gb  BMI160_ACC_GYRO_Driver.o [1]
bmi160_set_accel_under_sampling_parameter
                        0x080660a3     0x2c  Code  Gb  BMI160_ACC_GYRO_Driver.o [1]
bmi160_set_command_register
                        0x08066383     0x1a  Code  Gb  BMI160_ACC_GYRO_Driver.o [1]
bmi160_set_gyro_bw      0x080661d7     0x2a  Code  Gb  BMI160_ACC_GYRO_Driver.o [1]
bmi160_set_gyro_output_data_rate
                        0x0806617f     0x42  Code  Gb  BMI160_ACC_GYRO_Driver.o [1]
bmi160_set_gyro_range   0x0806623d     0x36  Code  Gb  BMI160_ACC_GYRO_Driver.o [1]
bmi160_set_intr_data_rdy
                        0x080662cd     0x3e  Code  Gb  BMI160_ACC_GYRO_Driver.o [1]
bmi160_spi2_cs          0x0806e315     0x38  Code  Gb  BMI160_ACC_GYRO_Driver_HL.o [1]
bmi160_spi_bus_read     0x0806e3fd     0x8e  Code  Gb  BMI160_ACC_GYRO_Driver_HL.o [1]
bmi160_spi_bus_write    0x0806e48b     0x5c  Code  Gb  BMI160_ACC_GYRO_Driver_HL.o [1]
bmi160_spi_init         0x0806e3d7     0x26  Code  Gb  BMI160_ACC_GYRO_Driver_HL.o [1]
bmi160_write_reg        0x08065e57     0x1a  Code  Gb  BMI160_ACC_GYRO_Driver.o [1]
bmi_is_mag_manual       0x080676e7     0x20  Code  Lc  BMI160_ACC_GYRO_Driver_Api.o [1]
boot_type               0x20002000     0x10  Data  Gb  PowerManager_power.o [1]
bq25896_get_charging_para
                        0x0805222d     0x46  Code  Lc  bq2589x_charger.o [1]
bq25896_get_pg_state    0x08052273     0x10  Code  Lc  bq2589x_charger.o [1]
bq25896_power_off       0x080522d7      0x4  Code  Lc  bq2589x_charger.o [1]
bq25896_power_reset     0x080522db      0x4  Code  Lc  bq2589x_charger.o [1]
bq25896_set_hiz_mode    0x080522c3     0x14  Code  Lc  bq2589x_charger.o [1]
bq25896_set_tmr2x       0x08051d1d      0x8  Code  Gb  bq2589x_charger.o [1]
bq2589x_adc_read_vbus_volt
                        0x08051b69     0x22  Code  Gb  bq2589x_charger.o [1]
bq2589x_adc_start       0x08051b0b     0x58  Code  Gb  bq2589x_charger.o [1]
bq2589x_charge_enable_or_disable
                        0x08052293      0xc  Code  Lc  bq2589x_charger.o [1]
bq2589x_charger_irq_workfunc
                        0x08051f5d    0x1c4  Code  Lc  bq2589x_charger.o [1]
bq2589x_check_ico_done  0x08051d4f     0x1a  Code  Lc  bq2589x_charger.o [1]
bq2589x_deinit          0x080523d9     0x22  Code  Lc  bq2589x_charger.o [1]
bq2589x_dev             0x20021d50     0x60  Data  Lc  bq2589x_charger.o [1]
bq2589x_disable_stat_pin
                        0x08051d13      0x6  Code  Gb  bq2589x_charger.o [1]
bq2589x_disable_watchdog_timer
                        0x08051d0b      0x2  Code  Gb  bq2589x_charger.o [1]
bq2589x_enableDisable_charger
                        0x08051ae1     0x2a  Code  Lc  bq2589x_charger.o [1]
bq2589x_enable_term     0x08051d69      0xc  Code  Lc  bq2589x_charger.o [1]
bq2589x_enter_hiz_mode  0x08051d35      0x4  Code  Gb  bq2589x_charger.o [1]
bq2589x_enter_ship_mode
                        0x08051d2d      0x4  Code  Gb  bq2589x_charger.o [1]
bq2589x_exit_hiz_mode   0x08051d39      0x2  Code  Gb  bq2589x_charger.o [1]
bq2589x_get_IINDPM_state
                        0x08051c6d     0x28  Code  Gb  bq2589x_charger.o [1]
bq2589x_get_chargecurr  0x08051b99     0x1c  Code  Gb  bq2589x_charger.o [1]
bq2589x_get_chargevolt  0x08051bdd     0x1c  Code  Gb  bq2589x_charger.o [1]
bq2589x_get_charging_status
                        0x08051caf     0x1e  Code  Gb  bq2589x_charger.o [1]
bq2589x_get_input_curr_limit
                        0x08051c3f     0x2e  Code  Gb  bq2589x_charger.o [1]
bq2589x_get_pg_status   0x08051cd3     0x1e  Code  Gb  bq2589x_charger.o [1]
bq2589x_get_vbus_volt   0x08052283     0x10  Code  Lc  bq2589x_charger.o [1]
bq2589x_init            0x080522df     0xfa  Code  Lc  bq2589x_charger.o [1]
bq2589x_init_device     0x08051db3    0x166  Code  Lc  bq2589x_charger.o [1]
bq2589x_intr_handler    0x080521f5     0x38  Code  Gb  bq2589x_charger.o [1]
bq2589x_intr_work       0x0805213b     0xb2  Code  Lc  bq2589x_charger.o [1]
bq2589x_pumpx_enable    0x08051d41      0xa  Code  Gb  bq2589x_charger.o [1]
bq2589x_read_byte       0x08051a1d     0x46  Code  Lc  bq2589x_charger.o [1]
bq2589x_read_idpm_limit
                        0x08051d75     0x20  Code  Gb  bq2589x_charger.o [1]
bq2589x_register_charge_fault_callback
                        0x08051f19     0x10  Code  Gb  bq2589x_charger.o [1]
bq2589x_register_charge_led_callback
                        0x08051f3d     0x10  Code  Gb  bq2589x_charger.o [1]
bq2589x_register_charge_ovp_callback
                        0x08051f29      0xe  Code  Gb  bq2589x_charger.o [1]
bq2589x_register_update_charging_stat
                        0x08051f4d     0x10  Code  Gb  bq2589x_charger.o [1]
bq2589x_reset_chip      0x08051d25      0x8  Code  Gb  bq2589x_charger.o [1]
bq2589x_set_charge_curr_limit
                        0x080522b7      0xc  Code  Lc  bq2589x_charger.o [1]
bq2589x_set_charge_volt_limit
                        0x080522ab      0xc  Code  Lc  bq2589x_charger.o [1]
bq2589x_set_chargecurr  0x08051b8b      0xe  Code  Gb  bq2589x_charger.o [1]
bq2589x_set_chargevolt  0x08051bc9     0x14  Code  Gb  bq2589x_charger.o [1]
bq2589x_set_in_curr_limit
                        0x0805229f      0xc  Code  Lc  bq2589x_charger.o [1]
bq2589x_set_input_curr_limit
                        0x08051c31      0xe  Code  Gb  bq2589x_charger.o [1]
bq2589x_set_input_volt_limit
                        0x08051c1f     0x12  Code  Gb  bq2589x_charger.o [1]
bq2589x_set_term_curr   0x08051bb5     0x10  Code  Gb  bq2589x_charger.o [1]
bq2589x_set_vindpm_offset
                        0x08051ca1      0xe  Code  Gb  bq2589x_charger.o [1]
bq2589x_update_bits     0x08051a79     0x62  Code  Lc  bq2589x_charger.o [1]
bsp_mcu_gpio_enable     0x08049201     0x2c  Code  Gb  x_pmic.o [1]
bsp_pmic_get_battery_info
                        0x080496f5     0xac  Code  Gb  x_pmic.o [1]
bsp_pmic_get_charger_para
                        0x0804963f     0x22  Code  Gb  x_pmic.o [1]
bsp_pmic_get_handle     0x0804986b     0x10  Code  Gb  x_pmic.o [1]
bsp_pmic_get_pg_status  0x08049661     0x22  Code  Gb  x_pmic.o [1]
bsp_pmic_init           0x080497a1     0xca  Code  Gb  x_pmic.o [1]
bsp_pmic_power_enable   0x08049331    0x236  Code  Gb  x_pmic.o [1]
bsp_pmic_power_get_state
                        0x0804922d    0x104  Code  Gb  x_pmic.o [1]
bsp_pmic_power_off      0x080495ed     0x26  Code  Gb  x_pmic.o [1]
bsp_pmic_power_state_dump
                        0x08049577     0x60  Code  Gb  x_pmic.o [1]
bsp_pmic_power_up_sequence
                        0x080495d7     0x16  Code  Gb  x_pmic.o [1]
bsp_pmic_set_charge_currentLimit
                        0x0804968f     0x22  Code  Gb  x_pmic.o [1]
bsp_pmic_set_charge_hizMode
                        0x080496d3     0x22  Code  Gb  x_pmic.o [1]
bsp_pmic_set_charge_voltageLimit
                        0x080496b1     0x22  Code  Gb  x_pmic.o [1]
bsp_pmic_set_charger_enableDisable
                        0x0804961d     0x22  Code  Gb  x_pmic.o [1]
btn_info                0x2002224c     0x20  Data  Gb  key_drv.o [1]
build_date              0x08040fe0     0x10  Data  Gb  sys_header.o [1]
build_time              0x08040ff0     0x10  Data  Gb  sys_header.o [1]
burst_read              0x0806e4f1     0x88  Code  Gb  BMI160_ACC_GYRO_Driver_HL.o [1]
byte_allign             0x08080551     0x1a  Code  Lc  akl_apis.o [1]
cal_accel_1axis         0x08059481    0x3ec  Code  Gb  gSensor_Calibate.o [1]
calc_offset             0x0807ab4d    0x122  Code  Lc  yas_mag_calib_min.o [1]
calculate_A             0x08059955     0xc6  Code  Gb  gSensor_Calibate.o [1]
calculate_A_adjoint     0x08059a1b     0xc4  Code  Gb  gSensor_Calibate.o [1]
calculate_A_inverse     0x08059adf     0x8a  Code  Gb  gSensor_Calibate.o [1]
ccg4_init               0x0805cd75     0xa8  Code  Gb  ccgx_ec.o [1]
ccg4_read_version       0x08041dcd     0x78  Code  Gb  command.o [1]
ccgx_dev                0x20022318     0x20  Data  Lc  ccgx_ec.o [1]
ccgx_dump_fw_info       0x08056b01     0xec  Code  Gb  ccgx_fw.o [1]
ccgx_enter_bl_mode      0x080567c3     0xb4  Code  Gb  ccgx_fw.o [1]
ccgx_fw_delay           0x0805651b     0x20  Code  Lc  ccgx_fw.o [1]
ccgx_fw_i2c_read        0x08056f55     0x20  Code  Gb  ccgx_fw_io.o [1]
ccgx_fw_i2c_write       0x08056f75     0x16  Code  Gb  ccgx_fw_io.o [1]
ccgx_fw_misc_cmds       0x0804610b     0xfc  Code  Lc  command.o [1]
ccgx_fws_offset         0x20012ad4      0x8  Data  Lc  ccgx_fw.o [1]
ccgx_fws_size           0x20012adc      0x8  Data  Lc  ccgx_fw.o [1]
ccgx_get_fw_version     0x0805658f     0x40  Code  Gb  ccgx_fw.o [1]
ccgx_i2c2_test          0x08041e7d     0x44  Code  Gb  command.o [1]
ccgx_init               0x0805ce29     0x72  Code  Gb  ccgx_ec.o [1]
ccgx_irq_handler        0x0805cb81     0x3a  Code  Gb  ccgx_ec.o [1]
ccgx_read_flash         0x08056fe3     0x1c  Code  Gb  ccgx_fw_io.o [1]
ccgx_set_fw_info        0x080564fd     0x1e  Code  Gb  ccgx_fw.o [1]
ccgx_task_thread_i2c1   0x0805cc61    0x10c  Code  Gb  ccgx_ec.o [1]
ccgx_upgrade_fw         0x08056bed     0x2e  Code  Gb  ccgx_fw.o [1]
ccgx_upgrade_fw_bl      0x08056889    0x26e  Code  Gb  ccgx_fw.o [1]
charger_test_cmd        0x0804387d     0xde  Code  Gb  command.o [1]
charger_test_help       0x08043807      0x8  Code  Lc  command.o [1]
charging_fault_stat     0x20022580      0x4  Data  Lc  PowerManager_battery.o [1]
check_args              0x0805533b     0x3a  Code  Lc  ams361ep01_dsi_vdo.o [1]
check_gamma_settings    0x08053625     0x26  Code  Lc  tc358870xbg_driver.o [1]
check_input_video_timing
                        0x08053da9    0x1b0  Code  Gb  tc358870xbg_driver.o [1]
check_resemblance       0x0807aab3     0x9a  Code  Lc  yas_mag_calib_min.o [1]
clamp                   0x0806ebcd     0x10  Code  Lc  quat.o [1]
clearAccValue           0x0804d009     0x30  Code  Gb  misc_data.o [1]
clearGyroValue          0x0804d073     0x32  Code  Gb  misc_data.o [1]
cmd_bootmode            0x08042367     0x92  Code  Gb  command.o [1]
cmd_gsensor_check       0x0805b42f     0xbc  Code  Gb  gSensor_Calibate.o [1]
cmd_gyro_check          0x0805b523     0x8e  Code  Gb  gSensor_Calibate.o [1]
cmd_help                0x0804648f     0x2e  Code  Gb  command.o [1]
cmd_init                0x080469fb     0x54  Code  Gb  command.o [1]
cmd_mag                 0x08042ba5    0x16e  Code  Gb  command.o [1]
cmd_mfg_bmi160_k_acc    0x08046a85     0x10  Code  Gb  command.o [1]
cmd_mfg_bmi160_k_gyro   0x08046a95     0x14  Code  Gb  command.o [1]
cmd_mfg_bmi160_test_gyro
                        0x08046ab5     0x1c  Code  Gb  command.o [1]
cmd_misc_data           0x08044745    0xef0  Code  Gb  command.o [1]
cmd_prox                0x08043015    0x1f4  Code  Gb  command.o [1]
cmd_ramtest             0x080462e7     0xd4  Code  Lc  command.o [1]
cmd_semaphore           0x20022538      0x4  Data  Lc  command.o [1]
commandTable            0x0804662c     0xe0  Data  Gb  command.o [1]
commandTaskHandle       0x20022530      0x4  Data  Lc  command.o [1]
cont_start_yas537       0x0807b421     0x28  Code  Lc  yas_mag_drv-yas537.o [1]
context                 0x200128c8      0x8  Data  Lc  tc358870xbg_driver.o [1]
copysignf               0x08071b0b     0x1a  Code  Gb  copysignf.o [5]
create_equation         0x0807ac6f    0x198  Code  Lc  yas_mag_calib_min.o [1]
cur_h2d_tbl             0x200128d4      0x4  Data  Lc  tc358870xbg_driver.o [1]
cur_log_level           0x20012aa8      0x4  Data  Lc  hlog_main.o [1]
cur_log_tags            0x20012aac      0x4  Data  Lc  hlog_main.o [1]
cursor_offset           0x20002010      0x4  Data  Lc  hlog_main.o [1]
curtime                 0x0807b3ef     0x10  Code  Lc  yas_mag_drv-yas537.o [1]
data_update             0x0807a961     0xba  Code  Lc  yas_mag_calib_min.o [1]
dbg_cdc_write           0x0805fbb1     0x68  Code  Gb  hlog_utils.o [1]
dbg_cdc_write_result    0x0805fc19     0x2c  Code  Gb  hlog_utils.o [1]
dbg_uart                0x20021b58     0x40  Data  Gb  usart_drv.o [1]
dbg_uart_disable        0x0806a603     0x14  Code  Gb  usart_drv.o [1]
dbg_uart_enable         0x0806a623     0x1e  Code  Gb  usart_drv.o [1]
dbg_uart_init           0x0806a5d7     0x2c  Code  Gb  usart_drv.o [1]
dbg_uart_irq_num        0x20021b54      0x1  Data  Lc  usart_drv.o [1]
dbg_uart_mutex          0x20021b98      0x4  Data  Gb  usart_drv.o [1]
dbg_uart_notify_callback
                        0x0806a6df     0x40  Code  Gb  usart_drv.o [1]
dbg_uart_postinit       0x0806a71f     0x70  Code  Gb  usart_drv.o [1]
dbg_uart_ready          0x20021b55      0x1  Data  Lc  usart_drv.o [1]
dbg_uart_rec_buf        0x0806a7cf     0x36  Code  Gb  usart_drv.o [1]
dbg_uart_rx_cplt        0x20021ba8      0x4  Data  Lc  usart_drv.o [1]
dbg_uart_rx_handler     0x0806a805     0x42  Code  Gb  usart_drv.o [1]
dbg_uart_rxne_flag      0x20021ba4      0x4  Data  Lc  usart_drv.o [1]
dbg_uart_set_rxne_flag  0x0806a88d     0x10  Code  Gb  usart_drv.o [1]
dbg_uart_wakeup_handler
                        0x0806a937      0x2  Code  Gb  usart_drv.o [1]
dbg_uart_write          0x0805fc45     0x1c  Code  Gb  hlog_utils.o [1]
default_spread          0x0807b38c      0x8  Data  Lc  yas_mag_calib_min.o [1]
default_variation       0x0807b388      0x4  Data  Lc  yas_mag_calib_min.o [1]
digits                  0x0805d978     0x28  Data  Lc  xstoul.o [4]
dimming_speed           0x20012bc0      0x4  Data  Lc  ams361ep01_dsi_vdo.o [1]
dimming_speed_setting   0x08083194      0x4  Data  Lc  ams361ep01_dsi_vdo.o [1]
disp_d2h_getid          0x080544d1     0x12  Code  Gb  tc358870xbg_driver.o [1]
disp_d2h_getid_anx7737  0x0806453f     0x5c  Code  Gb  anx7737_driver.o [1]
disp_d2h_getid_ps176    0x080646ab     0x12  Code  Gb  ps176_driver.o [1]
disp_fps_get            0x08054921      0xa  Code  Gb  tc358870xbg_driver.o [1]
disp_fps_set            0x08054849     0x22  Code  Lc  tc358870xbg_driver.o [1]
disp_h2d_getid          0x080544e3     0x18  Code  Gb  tc358870xbg_driver.o [1]
disp_lcd_backlight      0x080546c5     0x18  Code  Gb  tc358870xbg_driver.o [1]
disp_lcd_resume         0x0805469b     0x2a  Code  Gb  tc358870xbg_driver.o [1]
disp_lcd_suspend        0x0805463d     0x5e  Code  Gb  tc358870xbg_driver.o [1]
disp_phone_type_set     0x08054873     0x2e  Code  Gb  tc358870xbg_driver.o [1]
disp_power_off          0x080545d5     0x5e  Code  Gb  tc358870xbg_driver.o [1]
disp_power_off_last_tick
                        0x200128f0      0x4  Data  Lc  tc358870xbg_driver.o [1]
disp_power_on           0x08054585     0x48  Code  Gb  tc358870xbg_driver.o [1]
disp_read_aid           0x080553f3     0x20  Code  Gb  ams361ep01_dsi_vdo.o [1]
disp_read_comp          0x080552ff     0x3c  Code  Gb  ams361ep01_dsi_vdo.o [1]
disp_read_gamma         0x080544fb      0x4  Code  Gb  tc358870xbg_driver.o [1]
disp_test_cmd           0x08044285    0x214  Code  Gb  command.o [1]
disp_test_colorbar      0x080544ff     0x5c  Code  Gb  tc358870xbg_driver.o [1]
disp_test_dummy         0x08054561      0x8  Code  Gb  tc358870xbg_driver.o [1]
disp_test_dummy24       0x0805457d      0x8  Code  Gb  tc358870xbg_driver.o [1]
disp_test_hdcp          0x08054569      0x6  Code  Gb  tc358870xbg_driver.o [1]
disp_test_help          0x08043fd5     0x8e  Code  Gb  command.o [1]
disp_write_aid          0x08055413     0x32  Code  Gb  ams361ep01_dsi_vdo.o [1]
disp_write_comp         0x080553c1     0x32  Code  Gb  ams361ep01_dsi_vdo.o [1]
display_drv_init        0x0806b205     0x1a  Code  Gb  display_drv.o [1]
div                     0x08069b25      0xe  Code  Gb  div.o [4]
dmul                    0x0806dee9     0x5a  Code  Lc  xdtento.o [5]
doSensorChang           0x080687cd     0x26  Code  Gb  fusion.o [1]
dp2h_gpio_config_ps176  0x0806465d     0x44  Code  Gb  ps176_driver.o [1]
dp2h_power_en           0x08054739     0x12  Code  Lc  tc358870xbg_driver.o [1]
dp2h_power_en_anx7737   0x08064531      0xe  Code  Gb  anx7737_driver.o [1]
dp2h_power_en_ps176     0x08064609     0x4e  Code  Gb  ps176_driver.o [1]
driver                  0x20022094     0x44  Data  Lc  yas_drv.o [1]
driver                  0x200217b4     0x90  Data  Lc  yas_mag_drv-yas537.o [1]
dsi_dcs_read_reg_v2     0x08053af3    0x174  Code  Lc  tc358870xbg_driver.o [1]
dsi_fns                 0x200128fc      0x8  Data  Lc  tc358870xbg_driver.o [1]
dsi_set_cmdq            0x08053829    0x1ba  Code  Lc  tc358870xbg_driver.o [1]
dump_accdata            0x0805afb3    0x38a  Code  Gb  gSensor_Calibate.o [1]
dump_flash_raw          0x0805fea1     0x80  Code  Gb  hlog_utils.o [1]
dump_mcu_log_func       0x080486a1     0x70  Code  Gb  hlog_main.o [1]
dump_property_for_usb   0x0804a917    0x3e0  Code  Gb  misc_data.o [1]
epl88051_cmd_ps_proximity
                        0x0804f993     0x58  Code  Gb  epl88051_driver.o [1]
epl88051_device_read    0x0804f5e1     0x1c  Code  Lc  epl88051_driver.o [1]
epl88051_device_write   0x0804f5c5     0x1c  Code  Lc  epl88051_driver.o [1]
epl88051_ps_Xtalk_calibration
                        0x0804fb91     0x88  Code  Gb  epl88051_driver.o [1]
epl88051_ps_adc_value   0x0804f93b     0x58  Code  Gb  epl88051_driver.o [1]
epl88051_ps_deinit      0x0804f7e3     0x34  Code  Gb  epl88051_driver.o [1]
epl88051_ps_enable      0x0804f817     0x58  Code  Gb  epl88051_driver.o [1]
epl88051_ps_get_revno   0x0804f87b     0x20  Code  Gb  epl88051_driver.o [1]
epl88051_ps_get_threshold
                        0x0804f9fd     0x4e  Code  Gb  epl88051_driver.o [1]
epl88051_ps_init        0x0804f73d     0xa6  Code  Gb  epl88051_driver.o [1]
epl88051_ps_proximity   0x0804f8a3     0x4c  Code  Gb  epl88051_driver.o [1]
epl88051_ps_register_dump
                        0x0804facd     0x9a  Code  Gb  epl88051_driver.o [1]
epl88051_ps_sensing_time
                        0x0804f8fd     0x3e  Code  Lc  epl88051_driver.o [1]
epl88051_ps_set_threshold
                        0x0804fa53     0x70  Code  Gb  epl88051_driver.o [1]
epl88051_ps_setup       0x0804f621    0x112  Code  Lc  epl88051_driver.o [1]
epld                    0x200122f0     0x18  Data  Lc  epl88051_driver.o [1]
evm_cmd_func            0x080491e0     0x20  Data  Gb  htc_usb_cdc_data_service.o [1]
evm_path_switch_control
                        0x08060d7d     0x38  Code  Lc  audio_alc4040_driver.o [1]
exit                    0x08083447      0x4  Code  Gb  exit.o [4]
filter_useless_string   0x0806a8c5     0x72  Code  Lc  usart_drv.o [1]
findOrthogonalVector    0x0806eb35     0x90  Code  Gb  vec.o [1]
flash_erase             0x0805fd87     0xb0  Code  Gb  hlog_utils.o [1]
flash_init              0x080606f9     0x30  Code  Gb  flash_drv.o [1]
flash_mutex             0x20022598      0x4  Data  Lc  flash_drv.o [1]
flash_read              0x0805fc61     0x12  Code  Gb  hlog_utils.o [1]
flash_row_size          0x20012acc      0x2  Data  Gb  ccgx_fw.o [1]
flash_write             0x0805fc73    0x114  Code  Gb  hlog_utils.o [1]
fmin                    0x08072885     0x4e  Code  Gb  fmin.o [5]
fmod                    0x08074129           Code  Gb  fmod.o [5]
fmodl                   0x08074129           Code  Gb  fmod.o [5]
fota_ProcessRcvData     0x08070b59     0x62  Code  Gb  fota_command.o [1]
fota_reboot             0x08073061     0x4a  Code  Gb  fota_command.o [1]
fputc                   0x08083379     0x32  Code  Gb  myprintf.o [1]
fusionCheckState        0x08067f25     0x56  Code  Lc  fusion.o [1]
fusionGetRotationMatrix
                        0x080687f3      0xa  Code  Gb  fusion.o [1]
fusionHandleAcc         0x08068555    0x160  Code  Gb  fusion.o [1]
fusionHandleGyro        0x080682a7     0x2a  Code  Gb  fusion.o [1]
fusionHandleMag         0x080686d9     0xe8  Code  Gb  fusion.o [1]
fusionHasEstimate       0x08067c6f     0x26  Code  Gb  fusion.o [1]
fusionInitComplete      0x08067d29    0x16a  Code  Gb  fusion.o [1]
fusionPredict           0x08067f85    0x2f2  Code  Lc  fusion.o [1]
fusionUpdate            0x08068379    0x1d4  Code  Lc  fusion.o [1]
fusion_MsgQueueHandle   0x20020d64      0x4  Data  Lc  fusion.o [1]
fusion_data             0x20020d68    0x1ec  Data  Lc  fusion.o [1]
fusion_init             0x08068871     0x40  Code  Gb  fusion.o [1]
fusion_thread_func      0x0806883b     0x32  Code  Lc  fusion.o [1]
gSensorCalStatus        0x200225bc      0x1  Data  Gb  BMI160_ACC_GYRO_Driver_Api.o [1]
g_3dof_service_data     0x20021c1c     0x6c  Data  Lc  htc_3dof_transfer_service.o [1]
g_MFGModeFlag           0x20021648      0x4  Data  Gb  main.o [1]
g_alc4040_data          0x2002256c      0x8  Data  Lc  audio_alc4040_driver.o [1]
g_alc5665_data          0x20021a50     0x74  Data  Lc  audio_alc5665_driver.o [1]
g_asa                   0x200223b8      0x4  Data  Lc  aks_mag_ak099xx.o [1]
g_audio_srv_data        0x2002253c      0xc  Data  Lc  htc_audio_path_service.o [1]
g_dbg_uart_en           0x20012aa0      0x4  Data  Gb  hlog_main.o [1]
g_dev                   0x200223c4      0x2  Data  Lc  aks_mag_ak099xx.o [1]
g_hlog_ready            0x20012a9c      0x4  Data  Gb  hlog_main.o [1]
g_mag_axis_order        0x200223bc      0x4  Data  Lc  aks_mag_ak099xx.o [1]
g_mag_axis_sign         0x200223c0      0x4  Data  Lc  aks_mag_ak099xx.o [1]
g_mculog_data           0x20012a94      0x8  Data  Lc  hlog_main.o [1]
g_raw_to_micro_q16      0x200223c8      0xc  Data  Lc  aks_mag_ak099xx.o [1]
g_system_command_data   0x200219d8     0x78  Data  Lc  system_command.o [1]
g_system_property_data  0x20021ac4     0x74  Data  Lc  system_property.o [1]
g_usb_cdc_data          0x20021bac     0x70  Data  Lc  htc_usb_cdc_data_service.o [1]
g_usbd_data             0x200206e8     0x38  Data  Lc  usb_device.o [1]
gamma_compensation_setting
                        0x20012744     0x24  Data  Lc  ams361ep01_dsi_vdo.o [1]
gamma_setting           0x20012720     0x24  Data  Lc  ams361ep01_dsi_vdo.o [1]
gauge_test_cmd          0x08043529    0x154  Code  Gb  command.o [1]
gauge_test_help         0x080433f1      0x8  Code  Gb  command.o [1]
getAccCalheaderValue    0x0804d1f9     0x22  Code  Gb  misc_data.o [1]
getAccSelfTestValue     0x0804d1a9     0x18  Code  Gb  misc_data.o [1]
getBmi160OffsetValue    0x0804d0d5     0x84  Code  Gb  misc_data.o [1]
getBoardInformationMagicNumber
                        0x0804b539     0x34  Code  Gb  misc_data.o [1]
getCameraToHeadTransform_Matrix34
                        0x0804b2ef     0x7e  Code  Gb  misc_data.o [1]
getColorID              0x0804ba29     0x38  Code  Gb  misc_data.o [1]
getContainsProximitySensor
                        0x0804c53d     0x24  Code  Gb  misc_data.o [1]
getContainsRecenter     0x0804d639     0x24  Code  Gb  misc_data.o [1]
getCustomID             0x0804b631     0x38  Code  Gb  misc_data.o [1]
getDefaultData          0x0804a43d    0x3be  Code  Gb  misc_data.o [1]
getDeviceBatteryPercentage
                        0x0804c775     0x20  Code  Gb  misc_data.o [1]
getDeviceCanPowerOff    0x0804c485     0x24  Code  Gb  misc_data.o [1]
getDeviceClass          0x0804be39     0x26  Code  Gb  misc_data.o [1]
getDeviceIsCharging     0x0804c2fd     0x26  Code  Gb  misc_data.o [1]
getDeviceIsWireless     0x0804c24b     0x26  Code  Gb  misc_data.o [1]
getDeviceProvidesBatteryStatus
                        0x0804c3b1     0x26  Code  Gb  misc_data.o [1]
getDisplayFrequency     0x0804d4d1      0x4  Code  Gb  misc_data.o [1]
getDistanceEyeToLens    0x0804d68f     0x24  Code  Gb  misc_data.o [1]
getDistanceLensToScreen
                        0x0804d701     0x24  Code  Gb  misc_data.o [1]
getDistanceScaleX       0x0804d7dd     0x24  Code  Gb  misc_data.o [1]
getDistanceScaleY       0x0804d859     0x24  Code  Gb  misc_data.o [1]
getEngineerID           0x0804be79     0x26  Code  Gb  misc_data.o [1]
getFilteredData         0x080729f9      0x4  Code  Gb  LowPassFilter.o [1]
getFirmwareMainVersion  0x0804b7d3      0x6  Code  Gb  misc_data.o [1]
getFirmwareVersion      0x0804ccf9     0x46  Code  Gb  misc_data.o [1]
getFirmware_UpdateAvailable
                        0x0804c6a9     0x24  Code  Gb  misc_data.o [1]
getGyroBias             0x080705e1     0x64  Code  Gb  GyroscopeBiasEstimator.o [1]
getGyroSelfTestValue    0x0804d18d     0x1c  Code  Gb  misc_data.o [1]
getHardwareRevision_int
                        0x0804cd3f     0x24  Code  Gb  misc_data.o [1]
getHardwareRevision_string
                        0x0804c1a9     0x36  Code  Gb  misc_data.o [1]
getHasCamera            0x0804c605     0x24  Code  Gb  misc_data.o [1]
getHeadView_l           0x08068cdd      0x4  Code  Gb  HeadTransform.o [1]
getLastGyro             0x08068c1f     0x2a  Code  Gb  HeadTracker.o [1]
getLastGyro_angleAcc    0x08068c49     0x28  Code  Gb  HeadTracker.o [1]
getLensCenterLeftU      0x0804c925     0x20  Code  Gb  misc_data.o [1]
getLensCenterLeftV      0x0804c9dd     0x20  Code  Gb  misc_data.o [1]
getLensCenterRightU     0x0804ca9d     0x20  Code  Gb  misc_data.o [1]
getLensCenterRightV     0x0804cb5d     0x20  Code  Gb  misc_data.o [1]
getLensFocalLength      0x0804d76d     0x24  Code  Gb  misc_data.o [1]
getMBSerialNumber       0x0804b961     0x38  Code  Gb  misc_data.o [1]
getManufacturerName     0x0804c0d1     0x38  Code  Gb  misc_data.o [1]
getModelName            0x0804b7d9     0x38  Code  Gb  misc_data.o [1]
getNumSamples           0x08072941      0x4  Code  Gb  LowPassFilter.o [1]
getPolynomialCoeffsBlue
                        0x0804dae5     0x2e  Code  Gb  misc_data.o [1]
getPolynomialCoeffsGreen
                        0x0804da75     0x2e  Code  Gb  misc_data.o [1]
getPolynomialCoeffsRed  0x0804da0f     0x2e  Code  Gb  misc_data.o [1]
getProjectID            0x0804bc31     0x36  Code  Gb  misc_data.o [1]
getQuaternion           0x08068cf1    0x1b4  Code  Gb  HeadTransform.o [1]
getRealScreenSize       0x0804d99b     0x24  Code  Gb  misc_data.o [1]
getRecommendedRenderTargetSize
                        0x0804d935     0x34  Code  Gb  misc_data.o [1]
getRenderOverfill       0x0804d8c9     0x24  Code  Gb  misc_data.o [1]
getScreenshotHorizontalFOV
                        0x0804d4d5     0x24  Code  Gb  misc_data.o [1]
getScreenshotVerticalFOV
                        0x0804d5c7     0x24  Code  Gb  misc_data.o [1]
getSemiPara             0x0804baed     0x48  Code  Gb  misc_data.o [1]
getSerialNumber         0x0804c00b     0x38  Code  Gb  misc_data.o [1]
getStatusDisplayTransform_Matrix34
                        0x0804b40d     0x7e  Code  Gb  misc_data.o [1]
getTrackingFirmwareVersion
                        0x0804c225      0x2  Code  Gb  misc_data.o [1]
getTrackingSystemName   0x0804bf1d     0x38  Code  Gb  misc_data.o [1]
getUserHeadToEyeDepthMeters
                        0x0804cc1d     0x20  Code  Gb  misc_data.o [1]
getUserIpdMeters        0x0804c8d5     0x20  Code  Gb  misc_data.o [1]
get_HeadTracker_Instance
                        0x080689b9     0x16  Code  Gb  HeadTracker.o [1]
get_akm_calibrate       0x0804d3c9     0x22  Code  Gb  misc_data.o [1]
get_battery_state       0x0807301d     0x18  Code  Lc  fota_command.o [1]
get_bootmode            0x0804cdab     0x2c  Code  Gb  misc_data.o [1]
get_calendar_time       0x0805fe37     0x6a  Code  Gb  hlog_utils.o [1]
get_device_info         0x08073003     0x1a  Code  Lc  fota_command.o [1]
get_image_header        0x08060d1f     0x1a  Code  Gb  sys_header.o [1]
get_pcbid               0x0804cea5     0x22  Code  Gb  misc_data.o [1]
get_port_status         0x0805cbbb     0x48  Code  Gb  ccgx_ec.o [1]
get_ps_threshold        0x0804d2cd     0x28  Code  Gb  misc_data.o [1]
get_queue_commd         0x080469f5      0x6  Code  Gb  command.o [1]
get_skubid              0x0804b7a5     0x1e  Code  Gb  misc_data.o [1]
get_task_state          0x08064a2b    0x100  Code  Gb  freertos_trace.o [1]
get_yas_calibrate       0x0804d4a9     0x22  Code  Gb  misc_data.o [1]
getcProductDate         0x0804b89f     0x38  Code  Gb  misc_data.o [1]
getdwMFGAreaSignature   0x0804bd19     0x26  Code  Gb  misc_data.o [1]
gi_flm_err_rst_en       0x200128d0      0x1  Data  Lc  tc358870xbg_driver.o [1]
glMatrixFromSo3         0x0807013b     0x44  Code  Lc  OrientationEKF.o [1]
global_para             0x080831a4      0x4  Data  Lc  ams361ep01_dsi_vdo.o [1]
gpio_dump_status        0x08046e57     0xb2  Code  Gb  gpio.o [1]
gpio_init               0x0804714b     0x98  Code  Gb  gpio.o [1]
gpio_test_cmd           0x08041001     0xc2  Code  Gb  command.o [1]
gsensorDebugFlag        0x200225bf      0x1  Data  Gb  sensor_task.o [1]
gyroEvent               0x20022358     0x20  Data  Gb  sensor_task.o [1]
h2dMsgQueueHandle       0x200128e0      0x4  Data  Lc  tc358870xbg_driver.o [1]
h2dPmNotifyData         0x20022460     0x1c  Data  Lc  tc358870xbg_driver.o [1]
h2d_int_handle          0x08054335      0x4  Code  Gb  tc358870xbg_driver.o [1]
h2d_msg_dequeue         0x08053d85     0x1e  Code  Gb  tc358870xbg_driver.o [1]
h2d_msg_enqueue         0x08053d6d     0x18  Code  Gb  tc358870xbg_driver.o [1]
h2d_msg_enqueue_FromISR
                        0x08053d3b     0x32  Code  Gb  tc358870xbg_driver.o [1]
h2d_notify_callback     0x080549b7     0x44  Code  Gb  tc358870xbg_driver.o [1]
h2d_power_en            0x08054701     0x38  Code  Lc  tc358870xbg_driver.o [1]
h2d_reset_pin           0x080546dd     0x24  Code  Lc  tc358870xbg_driver.o [1]
h2d_task_entry          0x080542b3     0x82  Code  Gb  tc358870xbg_driver.o [1]
h2d_task_handle         0x200128d8      0x4  Data  Lc  tc358870xbg_driver.o [1]
h2d_task_request_ack    0x0805417d      0xe  Code  Gb  tc358870xbg_driver.o [1]
h2d_task_request_wait   0x08054121     0x5c  Code  Gb  tc358870xbg_driver.o [1]
hUsbDeviceFS            0x20020720    0x224  Data  Gb  usb_device.o [1]
hUsbDevice_0            0x20022050      0x4  Data  Gb  usbd_comp_if.o [1]
hadc1                   0x20021584     0x48  Data  Gb  main.o [1]
halF                    0x0806f04c      0x8  Data  Lc  mymath.o [1]
handle_ccg4             0x20012ad0      0x4  Data  Lc  ccgx_fw.o [1]
hdma_adc1               0x20021db0     0x60  Data  Gb  main.o [1]
hdmi2dsi_driver_init    0x08054a11    0x14e  Code  Gb  tc358870xbg_driver.o [1]
hdmi_sync_check_task    0x20012904      0x4  Data  Lc  tc358870xbg_driver.o [1]
hdmi_sync_check_task_entry
                        0x0805474b     0x4e  Code  Lc  tc358870xbg_driver.o [1]
hi2c1                   0x20021ecc     0x54  Data  Gb  rtos_i2c_drv.o [1]
hi2c2                   0x20021f20     0x54  Data  Gb  rtos_i2c_drv.o [1]
hiwdg                   0x20022548      0xc  Data  Gb  main.o [1]
hlog_cdc_clear_flash_log
                        0x0804867f     0x12  Code  Gb  hlog_main.o [1]
hlog_cdc_clear_logbuf   0x08048725     0x18  Code  Gb  hlog_main.o [1]
hlog_cdc_dump_flash_log
                        0x08048663     0x1c  Code  Gb  hlog_main.o [1]
hlog_cdc_dump_logbuf    0x08048711     0x14  Code  Gb  hlog_main.o [1]
hlog_clear_logbuf       0x0804873d     0x10  Code  Gb  hlog_main.o [1]
hlog_cmd                0x08044601     0xd4  Code  Lc  command.o [1]
hlog_dump_flashlog      0x080487e3     0x10  Code  Gb  hlog_main.o [1]
hlog_dump_logbuf        0x08048751     0x24  Code  Gb  hlog_main.o [1]
hlog_erase_flashlog     0x080487d5      0xe  Code  Gb  hlog_main.o [1]
hlog_exp_handler        0x080824c9     0x8c  Code  Gb  hlog_excep.o [1]
hlog_expinfo_printf     0x08082309     0x30  Code  Lc  hlog_excep.o [1]
hlog_flush_logbuf       0x0804874d      0x4  Code  Gb  hlog_main.o [1]
hlog_get_flashlog_head  0x080487f3      0xa  Code  Gb  hlog_main.o [1]
hlog_get_level          0x08048657      0x6  Code  Gb  hlog_main.o [1]
hlog_init               0x08048481     0x8a  Code  Gb  hlog_main.o [1]
hlog_level_number2name  0x08048461      0xe  Code  Gb  hlog_main.o [1]
hlog_printf             0x08048511    0x124  Code  Gb  hlog_main.o [1]
hlog_save_logbuf        0x08048775     0x60  Code  Gb  hlog_main.o [1]
hlog_set_level          0x08048649      0xe  Code  Gb  hlog_main.o [1]
hlog_tag_number2name    0x0804846f      0xc  Code  Gb  hlog_main.o [1]
hlog_ts_cnt             0x20012aa4      0x4  Data  Lc  hlog_main.o [1]
hpcd_USB_OTG_FS         0x2001ff60    0x3c8  Data  Gb  usbd_conf.o [1]
hrtc                    0x20021624     0x20  Data  Gb  main.o [1]
hspi2                   0x200215cc     0x58  Data  Gb  main.o [1]
htc_3dof_tran_service_send_data
                        0x08063fd9     0x44  Code  Gb  htc_3dof_transfer_service.o [1]
htc_3dof_tran_service_set_send_work_task_en
                        0x0806411f     0xb2  Code  Gb  htc_3dof_transfer_service.o [1]
htc_3dof_tran_srv_pm_notify_func
                        0x080641d1     0x32  Code  Gb  htc_3dof_transfer_service.o [1]
htc_3dof_transfer_service_initial
                        0x080642a9     0x22  Code  Gb  htc_3dof_transfer_service.o [1]
htc_3dof_update_battery_state
                        0x080640cb     0x54  Code  Gb  htc_3dof_transfer_service.o [1]
htc_3dof_update_display_status
                        0x08064041     0x14  Code  Gb  htc_3dof_transfer_service.o [1]
htc_3dof_update_flash_log_flag
                        0x08064055     0x10  Code  Gb  htc_3dof_transfer_service.o [1]
htc_3dof_update_flashlog_4_dump
                        0x08064065     0x4e  Code  Gb  htc_3dof_transfer_service.o [1]
htc_3dof_update_psensor_key
                        0x080640b3     0x12  Code  Gb  htc_3dof_transfer_service.o [1]
htc_3dof_update_vsync_status
                        0x0806401d     0x24  Code  Gb  htc_3dof_transfer_service.o [1]
htc_adc1_func_initial   0x080518df     0x44  Code  Gb  htc_adc_func.o [1]
htc_batt_get_current    0x080506b3     0x20  Code  Gb  max17050_fuel_gauge.o [1]
htc_batt_get_full_capacity
                        0x080506ef     0x14  Code  Gb  max17050_fuel_gauge.o [1]
htc_batt_get_soc        0x08050687     0x18  Code  Gb  max17050_fuel_gauge.o [1]
htc_batt_get_temperature
                        0x0805069f     0x14  Code  Gb  max17050_fuel_gauge.o [1]
htc_batt_get_voltage    0x080506d3     0x14  Code  Gb  max17050_fuel_gauge.o [1]
htc_cdc_srv_pm_notify_func
                        0x08048e49     0x36  Code  Gb  htc_usb_cdc_data_service.o [1]
htc_get_adc1_value      0x080517e3     0x28  Code  Lc  htc_adc_func.o [1]
htc_get_batt_average_voltage
                        0x0805180d     0xc8  Code  Gb  htc_adc_func.o [1]
htc_get_charger_state   0x08051ccd      0x6  Code  Gb  bq2589x_charger.o [1]
htim1up_tim10           0x20022118     0x3c  Data  Gb  freertos_trace.o [1]
htim2                   0x200221d8     0x3c  Data  Gb  stm32f4xx_hal_timebase_TIM.o [1]
huge                    0x20012bb8      0x4  Data  Lc  mymath.o [1]
i2c_test_cmd            0x080419ad    0x1d6  Code  Gb  command.o [1]
inHandlerMode           0x0805850d      0xc  Code  Lc  cmsis_os.o [1]
initDiagonalMatrix      0x0806e5ff     0x2c  Code  Gb  mat.o [1]
initFusion              0x08067b81     0xde  Code  Gb  fusion.o [1]
initMatrixColumns       0x0806e62b     0x28  Code  Gb  mat.o [1]
initQuat                0x0806ebe1     0xbc  Code  Gb  quat.o [1]
initVec3                0x08067a1f      0xe  Code  Lc  fusion.o [1]
initVec4                0x08067b6d     0x12  Code  Lc  fusion.o [1]
initZeroMatrix          0x0806e5f9      0x6  Code  Gb  mat.o [1]
init_gamma_setting      0x0805544d     0x30  Code  Lc  ams361ep01_dsi_vdo.o [1]
init_mparams            0x0805701b     0x32  Code  Lc  dlmalloc.o [4]
init_top                0x0805704d     0x34  Code  Lc  dlmalloc.o [4]
internal_rtc            0x20022520     0x10  Data  Gb  rtc_drv.o [1]
invsqrtTbl              0x0807f454     0x64  Data  Lc  AKMathLib.o [3]
ioexp_drv_init          0x08047b27     0xa0  Code  Gb  gpio_exp.o [1]
ioexp_get_reg_addr      0x08047a15     0x56  Code  Lc  gpio_exp.o [1]
ioexp_gpio_get_value    0x08047a6b     0x44  Code  Gb  gpio_exp.o [1]
ioexp_gpio_set_value    0x08047aaf     0x78  Code  Gb  gpio_exp.o [1]
ioexp_test_cmd          0x080414c5    0x1ee  Code  Gb  command.o [1]
isAkmUserCalibration    0x200222cd      0x1  Data  Lc  AKM099XX_MAG_driver_HL.o [1]
isChargerIn             0x08063d75     0x14  Code  Gb  PowerManager_power.o [1]
isReady                 0x0806fb8d      0x2  Code  Gb  OrientationEKF.o [1]
isRecentlyStatic        0x08070693     0x10  Code  Gb  GyroscopeBiasEstimator.o [1]
isUSBDataIn             0x08063d51     0x24  Code  Gb  PowerManager_power.o [1]
isYasUserCalibration    0x20012a3d      0x1  Data  Lc  YAS537_MAG_driver_HL.o [1]
is_buffdata_same        0x0805ff51     0x24  Code  Gb  hlog_utils.o [1]
is_h2d_init             0x080549fb     0x10  Code  Gb  tc358870xbg_driver.o [1]
is_ncp6924_init         0x20012b68      0x4  Data  Lc  ncp6924.o [1]
is_wakeup_by_rtc        0x20022500      0x1  Data  Lc  PowerManager_power.o [1]
isalpha                 0x08069249     0x14  Code  Gb  isxxx.o [4]
isaspace                0x080464f1     0x1a  Code  Gb  command.o [1]
isspace                 0x0806925d     0x14  Code  Gb  isxxx.o [4]
jacobi_calc_eigenpair   0x0807a725    0x23c  Code  Lc  yas_mag_calib_min.o [1]
jacobi_sort             0x0807a657     0xce  Code  Lc  yas_mag_calib_min.o [1]
keyIndexMutexId         0x20022274      0x4  Data  Lc  key_drv.o [1]
key_btn_isr             0x0805d585     0x6a  Code  Gb  key_drv.o [1]
key_drv_init            0x0805d5f7     0xc0  Code  Gb  key_drv.o [1]
key_longpress_timer_callback
                        0x0805d473     0x6a  Code  Lc  key_drv.o [1]
key_longpress_timer_exit
                        0x0805d465      0xe  Code  Lc  key_drv.o [1]
key_longpress_timer_start
                        0x0805d459      0xc  Code  Lc  key_drv.o [1]
l_gi_flm_1_int_cnt      0x200128e8      0x4  Data  Lc  tc358870xbg_driver.o [1]
l_gi_flm_1_int_handle   0x08054339     0xa8  Code  Gb  tc358870xbg_driver.o [1]
lcd_and_h2d_reset       0x08054799     0x5e  Code  Lc  tc358870xbg_driver.o [1]
lcm_backlight_level_setting
                        0x080556bc     0x10  Data  Lc  ams361ep01_dsi_vdo.o [1]
lcm_display_off_sequence_setting
                        0x080556cc     0x28  Data  Lc  ams361ep01_dsi_vdo.o [1]
lcm_display_on          0x080552a3     0x10  Code  Lc  ams361ep01_dsi_vdo.o [1]
lcm_display_on_setting  0x0805568c     0x10  Data  Lc  ams361ep01_dsi_vdo.o [1]
lcm_dsi_funcs           0x20012ba4      0x4  Data  Lc  ams361ep01_dsi_vdo.o [1]
lcm_get_id              0x080552bb     0x44  Code  Lc  ams361ep01_dsi_vdo.o [1]
lcm_get_params          0x080551d7     0x48  Code  Lc  ams361ep01_dsi_vdo.o [1]
lcm_gpio_configure      0x08055107     0x50  Code  Lc  ams361ep01_dsi_vdo.o [1]
lcm_init                0x0805521f      0x2  Code  Lc  ams361ep01_dsi_vdo.o [1]
lcm_initialization_setting
                        0x080555d4     0xb8  Data  Lc  ams361ep01_dsi_vdo.o [1]
lcm_initialize          0x0805528d     0x16  Code  Lc  ams361ep01_dsi_vdo.o [1]
lcm_power_off           0x08055189     0x32  Code  Lc  ams361ep01_dsi_vdo.o [1]
lcm_power_on            0x0805515f     0x2a  Code  Lc  ams361ep01_dsi_vdo.o [1]
lcm_resume              0x08055237     0x3e  Code  Lc  ams361ep01_dsi_vdo.o [1]
lcm_set_backlight       0x08055275     0x18  Code  Lc  ams361ep01_dsi_vdo.o [1]
lcm_set_dsi_funcs       0x080551bb     0x1c  Code  Lc  ams361ep01_dsi_vdo.o [1]
lcm_set_power_en        0x080550c1     0x46  Code  Lc  ams361ep01_dsi_vdo.o [1]
lcm_set_reset_pin       0x08055071     0x44  Code  Lc  ams361ep01_dsi_vdo.o [1]
lcm_sleep_in_sequence_setting
                        0x0805569c     0x20  Data  Lc  ams361ep01_dsi_vdo.o [1]
lcm_suspend             0x08055221     0x16  Code  Lc  ams361ep01_dsi_vdo.o [1]
lcm_wait_50ms_setting   0x080556f4      0x8  Data  Lc  ams361ep01_dsi_vdo.o [1]
led_data                0x2001245c     0x68  Data  Lc  led_hal.o [1]
led_data                0x20012b4c     0x10  Data  Gb  leds-lp5562.o [1]
led_drv_deinit          0x08047689      0xa  Code  Gb  led_drv.o [1]
led_drv_init            0x0804767f      0xa  Code  Gb  led_drv.o [1]
led_drv_resume          0x0804766d      0xa  Code  Gb  led_drv.o [1]
led_drv_suspend         0x08047665      0x8  Code  Gb  led_drv.o [1]
led_dump_event_status   0x080477b9     0x2c  Code  Gb  led_hal.o [1]
led_event               0x20012bd0      0x1  Data  Gb  led_hal.o [1]
led_event_deal          0x080476c5     0xcc  Code  Gb  led_drv.o [1]
led_event_str           0x20012950     0x34  Data  Gb  led_hal.o [1]
led_init                0x0804790d     0x52  Code  Gb  led_hal.o [1]
led_notify_callback     0x080478bd     0x34  Code  Gb  led_hal.o [1]
led_post_init           0x080478f1     0x1c  Code  Gb  led_hal.o [1]
led_reg_write           0x08047605      0xc  Code  Gb  led_drv.o [1]
led_set_led_state       0x08047693     0x30  Code  Gb  led_drv.o [1]
led_set_pwm_duty        0x08047611     0x4e  Code  Gb  led_drv.o [1]
led_test_cmd            0x08041279     0xd4  Code  Gb  command.o [1]
level2_key_lock         0x0808318c      0x8  Data  Lc  ams361ep01_dsi_vdo.o [1]
level2_key_unlock       0x08083150      0x8  Data  Lc  ams361ep01_dsi_vdo.o [1]
level3_key_lock         0x080831b4      0x8  Data  Lc  ams361ep01_dsi_vdo.o [1]
level3_key_unlock       0x0808319c      0x8  Data  Lc  ams361ep01_dsi_vdo.o [1]
level_names             0x20012b10     0x14  Data  Lc  hlog_main.o [1]
library_init            0x08080305     0xb4  Code  Gb  akl_lib_func.o [1]
ln2HI                   0x0806f054      0x8  Data  Lc  mymath.o [1]
ln2LO                   0x0806f05c      0x8  Data  Lc  mymath.o [1]
loadMiscData            0x0804a061     0x24  Code  Gb  misc_data.o [1]
load_and_start          0x08080283     0x42  Code  Gb  akl_lib_func.o [1]
localeconv              0x08069af3     0x16  Code  Gb  localeconv.o [4]
log_buf                 0x20002018  0x10000  Data  Lc  hlog_main.o [1]
logbuf_wrap_around      0x080483e1     0x36  Code  Lc  hlog_main.o [1]
longPressFlag           0x20022278      0x4  Data  Lc  key_drv.o [1]
longPressTimerHandle    0x2002227c      0x4  Data  Lc  key_drv.o [1]
longpress_counter       0x2002226c      0x1  Data  Lc  key_drv.o [1]
lookback_func           0x08048e7f      0x2  Code  Gb  htc_usb_cdc_data_service.o [1]
lp5562_init             0x0805dcc1     0x40  Code  Gb  leds-lp5562.o [1]
lp5562_load_engine      0x0805da79     0x2a  Code  Lc  leds-lp5562.o [1]
lp5562_load_selected_pattern
                        0x0805dc63     0x58  Code  Gb  leds-lp5562.o [1]
lp5562_run_engine       0x0805dabd     0xe4  Code  Gb  leds-lp5562.o [1]
lp5562_run_predef_led_pattern
                        0x0805dbe3     0x80  Code  Lc  leds-lp5562.o [1]
lp5562_set_led_current  0x0805da5f     0x1a  Code  Gb  leds-lp5562.o [1]
lp5562_stop_engine      0x0805daa9     0x14  Code  Lc  leds-lp5562.o [1]
lp5562_write_program_memory
                        0x0805dbab     0x38  Code  Lc  leds-lp5562.o [1]
lp55xx_deinit_device    0x0805dcbb      0x6  Code  Gb  leds-lp5562.o [1]
lp55xx_read             0x0805da19     0x18  Code  Gb  leds-lp5562.o [1]
lp55xx_update_bits      0x0805da31     0x2e  Code  Gb  leds-lp5562.o [1]
lp55xx_write            0x0805d9dd     0x3c  Code  Gb  leds-lp5562.o [1]
luminance               0x20012ba0      0x4  Data  Lc  ams361ep01_dsi_vdo.o [1]
luminance_setting       0x08083198      0x4  Data  Lc  ams361ep01_dsi_vdo.o [1]
m10_colorbar_phase1_tbl
                        0x0807718c    0x468  Data  Lc  tc358870xbg_driver.o [1]
m10_colorbar_phase2_tbl
                        0x080775f4     0xb4  Data  Lc  tc358870xbg_driver.o [1]
m10_h2d_tbl             0x080548a0     0x28  Data  Lc  tc358870xbg_driver.o [1]
m10_startup_phase1_tbl  0x080776a8    0x45c  Data  Lc  tc358870xbg_driver.o [1]
m10_startup_phase2_tbl  0x08077b04    0xe04  Data  Lc  tc358870xbg_driver.o [1]
magObservationFunctionForNumericalJacobian
                        0x080701cf     0x18  Code  Lc  OrientationEKF.o [1]
magPmNotifyData         0x2002247c     0x1c  Data  Lc  YAS537_MAG_driver_HL.o [1]
magSensor_notify_callback
                        0x0807c2d5     0xac  Code  Gb  YAS537_MAG_driver_HL.o [1]
magneticGetUserCalibration
                        0x0805bfbd      0xe  Code  Gb  sensor_task.o [1]
magneticSetUserCalibration
                        0x0805bfb1      0xc  Code  Gb  sensor_task.o [1]
main                    0x0806023d    0x1f2  Code  Gb  main.o [1]
makeFreeRtosPriority    0x08058501      0xc  Code  Lc  cmsis_os.o [1]
mat33Add                0x0806e747     0x38  Code  Gb  mat.o [1]
mat33Apply              0x0806e653     0x7a  Code  Gb  mat.o [1]
mat33Invert             0x0806e8bd    0x17c  Code  Gb  mat.o [1]
mat33IsPositiveSemidefinite
                        0x0806e7b7     0x68  Code  Gb  mat.o [1]
mat33Multiply           0x0806e6d1     0x4c  Code  Gb  mat.o [1]
mat33MultiplyTransposed
                        0x0806e821     0x4a  Code  Gb  mat.o [1]
mat33MultiplyTransposed2
                        0x0806e86d     0x4c  Code  Gb  mat.o [1]
mat33ScalarMul          0x0806e71d     0x2a  Code  Gb  mat.o [1]
mat33Sub                0x0806e77f     0x38  Code  Gb  mat.o [1]
mat33Transpose          0x0806ea39     0x28  Code  Gb  mat.o [1]
mat44Apply              0x0806ea61     0xd2  Code  Gb  mat.o [1]
matrixCross             0x08067ee5     0x3e  Code  Lc  fusion.o [1]
max17050_batt_online    0x08050521     0x1e  Code  Lc  max17050_fuel_gauge.o [1]
max17050_batt_soc_changed
                        0x08050af1     0x3a  Code  Lc  max17050_fuel_gauge.o [1]
max17050_batt_temp_changed
                        0x08050b2b     0xa0  Code  Lc  max17050_fuel_gauge.o [1]
max17050_cfg            0x20012148     0x94  Data  Lc  max17050_fuel_gauge.o [1]
max17050_cfg_init       0x08050cad    0x19a  Code  Lc  max17050_fuel_gauge.o [1]
max17050_complete_init  0x08050e71     0x7a  Code  Lc  max17050_fuel_gauge.o [1]
max17050_current        0x0805053f     0x30  Code  Lc  max17050_fuel_gauge.o [1]
max17050_deinit         0x080510e9     0x26  Code  Lc  max17050_fuel_gauge.o [1]
max17050_dev            0x20021e10     0x60  Data  Lc  max17050_fuel_gauge.o [1]
max17050_full_capacity  0x080505f3     0x18  Code  Lc  max17050_fuel_gauge.o [1]
max17050_get_current    0x08050619     0x18  Code  Lc  max17050_fuel_gauge.o [1]
max17050_get_full_capacity
                        0x08050673     0x14  Code  Lc  max17050_fuel_gauge.o [1]
max17050_get_property   0x08050705    0x118  Code  Lc  max17050_fuel_gauge.o [1]
max17050_get_soc        0x0805064b     0x14  Code  Lc  max17050_fuel_gauge.o [1]
max17050_get_temperature
                        0x0805065f     0x14  Code  Lc  max17050_fuel_gauge.o [1]
max17050_get_voltage    0x08050631     0x14  Code  Lc  max17050_fuel_gauge.o [1]
max17050_init           0x08050fe9    0x100  Code  Lc  max17050_fuel_gauge.o [1]
max17050_intr_handler   0x08050fab     0x3e  Code  Gb  max17050_fuel_gauge.o [1]
max17050_intr_work      0x08050ef7     0xa4  Code  Lc  max17050_fuel_gauge.o [1]
max17050_por_load_model
                        0x08050bd3     0xb2  Code  Lc  max17050_fuel_gauge.o [1]
max17050_read_reg       0x080503fd     0x38  Code  Lc  max17050_fuel_gauge.o [1]
max17050_register_batt_status_notify
                        0x08050c85     0x14  Code  Gb  max17050_fuel_gauge.o [1]
max17050_register_get_batt_online
                        0x08050c99     0x14  Code  Gb  max17050_fuel_gauge.o [1]
max17050_set_soc_thresholds
                        0x0805081d     0x72  Code  Lc  max17050_fuel_gauge.o [1]
max17050_set_temperature_thresholds
                        0x08050891     0xc8  Code  Lc  max17050_fuel_gauge.o [1]
max17050_soc            0x08050595     0x32  Code  Lc  max17050_fuel_gauge.o [1]
max17050_soc_exceed_handler
                        0x080509d7     0x32  Code  Lc  max17050_fuel_gauge.o [1]
max17050_temperature    0x080505c7     0x2c  Code  Lc  max17050_fuel_gauge.o [1]
max17050_temperature_exceed_handler
                        0x08050a09     0x6c  Code  Lc  max17050_fuel_gauge.o [1]
max17050_temperature_thresholds_init
                        0x0805095f     0x78  Code  Lc  max17050_fuel_gauge.o [1]
max17050_update_ext_temp
                        0x08050a75     0x7c  Code  Lc  max17050_fuel_gauge.o [1]
max17050_voltage        0x08050575     0x20  Code  Lc  max17050_fuel_gauge.o [1]
max17050_write_reg      0x08050475     0x34  Code  Lc  max17050_fuel_gauge.o [1]
max17050_write_verify_reg
                        0x080504c9     0x58  Code  Lc  max17050_fuel_gauge.o [1]
mcu_rtc_alarm_disable   0x08052b6f      0xc  Code  Gb  rtc_drv.o [1]
mcu_rtc_get_alarm       0x08052b7b     0x10  Code  Gb  rtc_drv.o [1]
mcu_rtc_get_date        0x08052acb      0xe  Code  Gb  rtc_drv.o [1]
mcu_rtc_get_time        0x08052abd      0xe  Code  Gb  rtc_drv.o [1]
mcu_rtc_init_default_dateAndTime
                        0x08052bd7     0x2e  Code  Gb  rtc_drv.o [1]
mcu_rtc_set_alarm       0x08052b1d     0x18  Code  Gb  rtc_drv.o [1]
mcu_rtc_set_alarmB      0x08052b35     0x16  Code  Gb  rtc_drv.o [1]
mcu_rtc_set_date        0x08052af5     0x1c  Code  Gb  rtc_drv.o [1]
mcu_rtc_set_time        0x08052ad9     0x1c  Code  Gb  rtc_drv.o [1]
mcu_rtc_wakeUp_alarm_disable
                        0x08052bb7     0x20  Code  Gb  rtc_drv.o [1]
mcu_rtc_wakeUp_alarm_set_time
                        0x08052b8b     0x2c  Code  Gb  rtc_drv.o [1]
measure_time_worst      0x0807b9b4     0x18  Data  Lc  yas_mag_drv-yas537.o [1]
memchr                  0x08069271           Code  Gb  memchr.o [6]
min_sqrttable           0x0807a3a0    0x100  Data  Lc  yas_mag_calib_min.o [1]
misc_data_init          0x08049fa1     0x48  Code  Gb  misc_data.o [1]
misc_is_ascii_char      0x0804a115      0xe  Code  Lc  misc_data.o [1]
misc_read_mutex         0x20022554      0x4  Data  Lc  misc_data.o [1]
misc_write_mutex        0x20022558      0x4  Data  Lc  misc_data.o [1]
module                  0x20021e70     0x5c  Data  Lc  yas_algo.o [1]
module                  0x2002112c    0x15c  Data  Lc  yas_mag_calib_min.o [1]
module                  0x20021488     0xfc  Data  Lc  yas_mag_filter.o [1]
mparams                 0x20022498     0x18  Data  Lc  dlmalloc.o [4]
multiple_data           0x200224c8     0x10  Data  Lc  periph_multiple_drv.o [1]
multiplyMM              0x08068f0f     0x94  Code  Gb  Matrix.o [1]
myRandom                0x0806c64b     0x1a  Code  Gb  PowerManager_command.o [1]
my_strtoul              0x08042471     0x18  Code  Gb  command.o [1]
ncp6924_reg_read        0x08049aa9     0x38  Code  Gb  ncp6924.o [1]
ncp6924_reg_write       0x08049aeb     0x36  Code  Gb  ncp6924.o [1]
ncp6924_reg_write_enable_bit
                        0x08049b21     0x94  Code  Lc  ncp6924.o [1]
ndigs                   0x0805d9a0     0x28  Data  Lc  xstoul.o [4]
new_GyroscopeBiasEstimator
                        0x08070441      0x4  Code  Gb  GyroscopeBiasEstimator.o [1]
new_HeadTracker         0x0806891d     0x9c  Code  Gb  HeadTracker.o [1]
new_HeadTransform       0x08068cd1      0xc  Code  Gb  HeadTransform.o [1]
new_IsStaticCounter     0x080704a9      0x8  Code  Gb  GyroscopeBiasEstimator.o [1]
new_LowPassFilter       0x080728ed     0x54  Code  Gb  LowPassFilter.o [1]
new_Matrix3x3d          0x0807220d     0x16  Code  Gb  Matrix3x3d.o [1]
new_OrientationEKF      0x0806f869      0x4  Code  Gb  OrientationEKF.o [1]
new_Vector3d            0x08070209      0xa  Code  Gb  Vector3d.o [1]
no_conversion           0x0807c1f8     0x14  Data  Lc  yas_mag_drv-yas537.o [1]
notify_test_callback    0x0806c709     0x1a  Code  Gb  PowerManager_command.o [1]
obuf                    0x20021f74     0x50  Data  Lc  xfiles.o [4]
ocean_colorbar_phase1_tbl
                        0x080742dc    0x468  Data  Lc  tc358870xbg_driver.o [1]
ocean_colorbar_phase2_tbl
                        0x08074744     0xb4  Data  Lc  tc358870xbg_driver.o [1]
ocean_h2d_tbl           0x080548f0     0x28  Data  Lc  tc358870xbg_driver.o [1]
ocean_note_colorbar_phase1_tbl
                        0x08075a34    0x468  Data  Lc  tc358870xbg_driver.o [1]
ocean_note_colorbar_phase2_tbl
                        0x08075e9c     0xb4  Data  Lc  tc358870xbg_driver.o [1]
ocean_note_h2d_tbl      0x080548c8     0x28  Data  Lc  tc358870xbg_driver.o [1]
ocean_note_startup_phase1_tbl
                        0x08075f50    0x45c  Data  Lc  tc358870xbg_driver.o [1]
ocean_note_startup_phase2_tbl
                        0x080763ac    0xde0  Data  Lc  tc358870xbg_driver.o [1]
ocean_startup_phase1_tbl
                        0x080747f8    0x45c  Data  Lc  tc358870xbg_driver.o [1]
ocean_startup_phase2_tbl
                        0x08074c54    0xde0  Data  Lc  tc358870xbg_driver.o [1]
onSensorChanged         0x080689cf     0x8c  Code  Gb  HeadTracker.o [1]
on_sensor_changed       0x080687fd     0x3e  Code  Gb  fusion.o [1]
ops_flag                0x200128e4      0x4  Data  Lc  tc358870xbg_driver.o [1]
ops_mutex               0x200128dc      0x4  Data  Lc  tc358870xbg_driver.o [1]
osDelay                 0x08058573      0xe  Code  Gb  cmsis_os.o [1]
osKernelStart           0x08058519      0xa  Code  Gb  cmsis_os.o [1]
osKernelSysTick         0x08058523     0x1a  Code  Gb  cmsis_os.o [1]
osMessageCreate         0x080588a7      0xa  Code  Gb  cmsis_os.o [1]
osMessageGet            0x08058903     0x6e  Code  Gb  cmsis_os.o [1]
osMessagePut            0x080588b1     0x52  Code  Gb  cmsis_os.o [1]
osMutexCreate           0x0805870f      0x6  Code  Gb  cmsis_os.o [1]
osMutexDelete           0x080587a1      0xe  Code  Gb  cmsis_os.o [1]
osMutexRelease          0x08058763     0x3e  Code  Gb  cmsis_os.o [1]
osMutexWait             0x08058715     0x4e  Code  Gb  cmsis_os.o [1]
osSemaphoreCreate       0x080587af     0x26  Code  Gb  cmsis_os.o [1]
osSemaphoreRelease      0x08058841     0x3e  Code  Gb  cmsis_os.o [1]
osSemaphoreWait         0x080587d5     0x4e  Code  Gb  cmsis_os.o [1]
osSignalSet             0x08058673     0x54  Code  Gb  cmsis_os.o [1]
osSignalWait            0x080586c7     0x48  Code  Gb  cmsis_os.o [1]
osSystickHandler        0x08058985     0x14  Code  Gb  cmsis_os.o [1]
osThreadCreate          0x0805853d     0x36  Code  Gb  cmsis_os.o [1]
osThreadResume          0x080589a3     0x2e  Code  Gb  cmsis_os.o [1]
osThreadSuspend         0x08058999      0xa  Code  Gb  cmsis_os.o [1]
osTimerCreate           0x08058581     0x1a  Code  Gb  cmsis_os.o [1]
osTimerDelete           0x08058647     0x2c  Code  Gb  cmsis_os.o [1]
osTimerStart            0x0805859b     0x56  Code  Gb  cmsis_os.o [1]
osTimerStop             0x080585f1     0x56  Code  Gb  cmsis_os.o [1]
pFlash                  0x20022378     0x20  Data  Gb  stm32f4xx_hal_flash.o [1]
p_bmi160                0x20022594      0x4  Data  Gb  BMI160_ACC_GYRO_Driver.o [1]
pa_test                 0x2002257c      0x1  Data  Gb  PowerManager_battery.o [1]
panel_error_monitor     0x080544a1     0x2a  Code  Gb  tc358870xbg_driver.o [1]
parse_buf               0x20021954     0x84  Data  Gb  usart_drv.o [1]
pat2mat                 0x08081a8f     0xb2  Code  Lc  AKDecomp.o [3]
pcb_id                  0x20021644      0x4  Data  Gb  main.o [1]
pentile_ctrl            0x0808316c      0x8  Data  Lc  ams361ep01_dsi_vdo.o [1]
performance_test        0x0804648b      0x4  Code  Lc  command.o [1]
periph_multiple_init    0x0805caaf     0x44  Code  Gb  periph_multiple_drv.o [1]
phone_vbus_det_irq      0x0805d203     0x58  Code  Gb  PowerManager_system.o [1]
plugin_getLastHeadView  0x08068b15     0x48  Code  Gb  HeadTracker.o [1]
plugin_getPredictedGLMatrix
                        0x0806fba5      0x2  Code  Gb  OrientationEKF.o [1]
pmic_test_cmd           0x08042055    0x148  Code  Gb  command.o [1]
pmic_test_help          0x08041f0d      0x8  Code  Gb  command.o [1]
pmic_vreg               0x20012b5c      0xc  Data  Gb  ncp6924.o [1]
power                   0x0805bd05     0x2c  Code  Lc  sensor_task.o [1]
powerInt                0x0805bcf1     0x12  Code  Lc  sensor_task.o [1]
power_ctrl              0x08083174      0x8  Data  Lc  ams361ep01_dsi_vdo.o [1]
power_item_str          0x20012080     0x34  Data  Lc  x_pmic.o [1]
pows                    0x0806e0a0     0x48  Data  Lc  xdtento.o [5]
prepend_alloc           0x08057081    0x36e  Code  Lc  dlmalloc.o [4]
prevSensorTime          0x200225ac      0x4  Data  Gb  sensor_task.o [1]
prev_ch                 0x200225be      0x1  Data  Lc  myprintf.o [1]
print_M                 0x08059b69     0x40  Code  Gb  gSensor_Calibate.o [1]
print_bootmode          0x080421c1     0xae  Code  Lc  command.o [1]
print_version           0x08080225     0x5e  Code  Gb  akl_lib_func.o [1]
printf                  0x080483bd     0x24  Code  Gb  printf.o [4]
prm                     0x200222d0      0x4  Data  Gb  AKM099XX_MAG_driver_HL.o [1]
processAcc              0x0806fd0d    0x214  Code  Gb  OrientationEKF.o [1]
processAccelerometer    0x0807059b     0x46  Code  Gb  GyroscopeBiasEstimator.o [1]
processGyro             0x0806fbb5    0x148  Code  Gb  OrientationEKF.o [1]
processGyroscope        0x080704b1     0xd6  Code  Gb  GyroscopeBiasEstimator.o [1]
processMag              0x0806ff3d    0x1cc  Code  Gb  OrientationEKF.o [1]
proximityMsgQueueHandle
                        0x20022518      0x4  Data  Gb  proximity_task.o [1]
proximitySensorEnable   0x0805bb51     0x34  Code  Gb  proximity_task.o [1]
proximitySensorIsr      0x0805bbc9     0x34  Code  Gb  proximity_task.o [1]
proximityTaskHandle     0x20022514      0x4  Data  Gb  proximity_task.o [1]
proximityTaskInit       0x0805bb85     0x44  Code  Gb  proximity_task.o [1]
prvAddCurrentTaskToDelayedList
                        0x08055f9d     0x30  Code  Lc  tasks.o [1]
prvAllocateTCBAndStack  0x08055fcd     0x38  Code  Lc  tasks.o [1]
prvCheckForValidListAndQueue
                        0x080613e9     0x4c  Code  Lc  timers.o [1]
prvCopyDataFromQueue    0x08058fa9     0x26  Code  Lc  queue.o [1]
prvCopyDataToQueue      0x08058f3b     0x6e  Code  Lc  queue.o [1]
prvIdleTask             0x08055eed     0x5a  Code  Lc  tasks.o [1]
prvInitialiseTCBVariables
                        0x08055f47     0x56  Code  Lc  tasks.o [1]
prvInsertBlockIntoFreeList
                        0x08064db1     0x46  Code  Lc  heap_4.o [1]
prvInsertTimerInActiveList
                        0x080612fd     0x34  Code  Lc  timers.o [1]
prvListTaskWithinSingleList
                        0x08056005     0x86  Code  Lc  tasks.o [1]
prvProcessReceivedCommands
                        0x08061331     0xa8  Code  Lc  timers.o [1]
prvProcessTimerOrBlockTask
                        0x080611e7     0x9c  Code  Lc  timers.o [1]
prvResetNextTaskUnblockTime
                        0x0805608b     0x1a  Code  Lc  tasks.o [1]
prvSampleTimeNow        0x08061283     0x7a  Code  Lc  timers.o [1]
prvTaskExitError        0x08064769     0x28  Code  Lc  port.o [1]
prvTaskIsTaskSuspended  0x080559cf     0x28  Code  Lc  tasks.o [1]
prvTimerTask            0x080611c5     0x22  Code  Lc  timers.o [1]
prvUnlockQueue          0x08058fcf     0x5c  Code  Lc  queue.o [1]
ps_adc_value            0x20012348     0x10  Data  Lc  epl88051_driver.o [1]
ps_data                 0x200224b0     0x14  Data  Lc  PowerManager_system.o [1]
ps_filter_value         0x20012358     0x1c  Data  Lc  epl88051_driver.o [1]
ps_integration_value    0x20012308     0x40  Data  Lc  epl88051_driver.o [1]
putchar                 0x080834d1      0xc  Code  Gb  putchar.o [4]
pvPortMalloc            0x08064c21    0x112  Code  Gb  heap_4.o [1]
pvTaskIncrementMutexHeldCount
                        0x080561d7     0x14  Code  Gb  tasks.o [1]
pwrmgr_state_going_get  0x08063833      0x6  Code  Gb  PowerManager_state_machine.o [1]
pwrmgr_state_machine_get
                        0x08063839     0x38  Code  Gb  PowerManager_state_machine.o [1]
pwrmgr_state_machine_init
                        0x0806389b     0x7e  Code  Gb  PowerManager_state_machine.o [1]
pwrmgr_state_machine_set
                        0x080637d3     0x60  Code  Gb  PowerManager_state_machine.o [1]
pwrmgr_state_machine_thread_run
                        0x080637c5      0xe  Code  Lc  PowerManager_state_machine.o [1]
pwrmgr_system_init      0x0805d2c7     0x8e  Code  Gb  PowerManager_system.o [1]
pwrmgr_system_notify_callback
                        0x0805d267     0x60  Code  Lc  PowerManager_system.o [1]
pwrmgr_system_send_message
                        0x0805d1c5     0x3e  Code  Gb  PowerManager_system.o [1]
pwrmgr_system_thread_func
                        0x0805cff1    0x1c4  Code  Lc  PowerManager_system.o [1]
pwrmgr_system_try_to_poweroff
                        0x0805cfd5     0x1a  Code  Lc  PowerManager_system.o [1]
pxCurrentTCB            0x2002173c      0x4  Data  Gb  tasks.o [1]
pxCurrentTimerList      0x20022214      0x4  Data  Lc  timers.o [1]
pxDelayedTaskList       0x20021740      0x4  Data  Lc  tasks.o [1]
pxEnd                   0x20012bdc      0x4  Data  Lc  heap_4.o [1]
pxOverflowDelayedTaskList
                        0x20021744      0x4  Data  Lc  tasks.o [1]
pxOverflowTimerList     0x20022218      0x4  Data  Lc  timers.o [1]
pxPortInitialiseStack   0x08064745     0x24  Code  Gb  port.o [1]
pxReadyTasksLists       0x20021844     0x8c  Data  Lc  tasks.o [1]
pxTaskStatusArray       0x20020328    0x3c0  Data  Gb  freertos_trace.o [1]
quatNormalize           0x0806ed4f     0x94  Code  Gb  quat.o [1]
quatToMatrix            0x0806ecb1     0x9e  Code  Gb  quat.o [1]
r_gi_flm_1_int_cnt      0x200128ec      0x4  Data  Lc  tc358870xbg_driver.o [1]
r_gi_flm_1_int_handle   0x080543e1     0xac  Code  Gb  tc358870xbg_driver.o [1]
radius_variance         0x0807aa1b     0x92  Code  Lc  yas_mag_calib_min.o [1]
rand                    0x08070c35     0xe0  Code  Gb  rand.o [4]
readDCSData             0x080535fb     0x2a  Code  Lc  tc358870xbg_driver.o [1]
readFromDSI             0x080534a1     0x8e  Code  Lc  tc358870xbg_driver.o [1]
read_Gamma              0x080831c0      0x4  Data  Lc  ams361ep01_dsi_vdo.o [1]
read_accel_xdown        0x08059d8d    0x100  Code  Gb  gSensor_Calibate.o [1]
read_accel_xup          0x08059bd5    0x120  Code  Gb  gSensor_Calibate.o [1]
read_accel_ydown        0x0805a0d5    0x102  Code  Gb  gSensor_Calibate.o [1]
read_accel_yup          0x08059f1d    0x102  Code  Gb  gSensor_Calibate.o [1]
read_accel_zdown        0x0805a499    0x100  Code  Gb  gSensor_Calibate.o [1]
read_accel_zup          0x0805a31d    0x102  Code  Gb  gSensor_Calibate.o [1]
read_count              0x2002255c      0x4  Data  Gb  misc_data.o [1]
read_yas537             0x0807b44f    0x180  Code  Lc  yas_mag_drv-yas537.o [1]
reboot_timer_def        0x2002258c      0x4  Data  Gb  PowerManager_command.o [1]
reboot_timer_id         0x20022590      0x4  Data  Gb  PowerManager_command.o [1]
reg_read_i2c1           0x08069205     0x2e  Code  Gb  ccgx_ccg4.o [1]
release_write_mutex     0x0804a035     0x14  Code  Gb  misc_data.o [1]
reset_yas537            0x0807b619    0x350  Code  Lc  yas_mag_drv-yas537.o [1]
resolution_setting      0x08083158      0xc  Data  Lc  ams361ep01_dsi_vdo.o [1]
rewrite_gamma_settings  0x0805364d    0x110  Code  Lc  tc358870xbg_driver.o [1]
rtc_drv_getDate         0x08052c05     0x2c  Code  Gb  rtc_drv.o [1]
rtc_drv_getTime         0x08052c31     0x46  Code  Gb  rtc_drv.o [1]
rtc_drv_init            0x08052e91     0x82  Code  Gb  rtc_drv.o [1]
rtc_drv_setAlarmA       0x08052d05     0x38  Code  Gb  rtc_drv.o [1]
rtc_drv_setAlarmB       0x08052d45     0x34  Code  Gb  rtc_drv.o [1]
rtc_drv_setDate         0x08052cbd     0x40  Code  Gb  rtc_drv.o [1]
rtc_drv_setTime         0x08052c77     0x46  Code  Gb  rtc_drv.o [1]
rtc_intr_handler        0x08052e2b     0x32  Code  Lc  rtc_drv.o [1]
rtc_intr_work           0x08052db7     0x74  Code  Lc  rtc_drv.o [1]
rtc_test_cmd            0x08043b9d    0x218  Code  Lc  command.o [1]
rtc_test_help           0x08043a65     0x58  Code  Gb  command.o [1]
rtc_valid_tm            0x08052aa9     0x14  Code  Gb  rtc_drv.o [1]
s_bmi160                0x200223d4     0x1c  Data  Gb  BMI160_ACC_GYRO_Driver.o [1]
saveAccelOffsetValue    0x0804ced5     0x66  Code  Gb  misc_data.o [1]
saveGyroOffsetValue     0x0804cf85     0x46  Code  Gb  misc_data.o [1]
saveMiscData            0x0804a09d     0x3e  Code  Gb  misc_data.o [1]
scaleCovariance         0x080682d1     0xa0  Code  Lc  fusion.o [1]
searchDeviceName        0x08047cab     0xb8  Code  Gb  rtos_i2c_drv.o [1]
segment_holding         0x08057001     0x1a  Code  Lc  dlmalloc.o [4]
sensorEnable            0x0805becb     0x3c  Code  Gb  sensor_task.o [1]
sensorGetData           0x0805bf45     0x18  Code  Gb  sensor_task.o [1]
sensorGetGyroData       0x0805bf65     0x4c  Code  Gb  sensor_task.o [1]
sensorIsr               0x0805be99     0x32  Code  Gb  sensor_task.o [1]
sensorSetOdr            0x0805bf1b     0x20  Code  Gb  sensor_task.o [1]
sensorTaskHandle        0x200224dc      0x4  Data  Gb  sensor_task.o [1]
sensorTaskInit          0x0805bdd7     0xc2  Code  Gb  sensor_task.o [1]
sensorTimeOverflowCount
                        0x200225a8      0x4  Data  Gb  sensor_task.o [1]
setBoardInformationMagicNumber
                        0x0804b5a1     0x3c  Code  Gb  misc_data.o [1]
setColorID              0x0804ba75     0x3c  Code  Gb  misc_data.o [1]
setContainsProximitySensor
                        0x0804c589     0x32  Code  Gb  misc_data.o [1]
setContainsRecenter     0x0804d65d     0x32  Code  Gb  misc_data.o [1]
setCustomID             0x0804b681     0x46  Code  Gb  misc_data.o [1]
setDefaultData          0x0804a125    0x26e  Code  Gb  misc_data.o [1]
setDeviceBatteryPercentage
                        0x0804c7bd     0x44  Code  Gb  misc_data.o [1]
setDeviceCanPowerOff    0x0804c4c9     0x32  Code  Gb  misc_data.o [1]
setDeviceClass          0x0804bdd5     0x32  Code  Gb  misc_data.o [1]
setDeviceIsCharging     0x0804c341     0x34  Code  Gb  misc_data.o [1]
setDeviceIsWireless     0x0804c28d     0x34  Code  Gb  misc_data.o [1]
setDeviceProvidesBatteryStatus
                        0x0804c401     0x34  Code  Gb  misc_data.o [1]
setDisplayOnDevice      0x0804db57     0x30  Code  Gb  misc_data.o [1]
setDistanceEyeToLens    0x0804d6b9     0x48  Code  Gb  misc_data.o [1]
setDistanceLensToScreen
                        0x0804d725     0x48  Code  Gb  misc_data.o [1]
setDistanceScaleX       0x0804d801     0x48  Code  Gb  misc_data.o [1]
setDistanceScaleY       0x0804d881     0x48  Code  Gb  misc_data.o [1]
setEngineerID           0x0804beb9     0x32  Code  Gb  misc_data.o [1]
setFirmware_UpdateAvailable
                        0x0804c6f5     0x32  Code  Gb  misc_data.o [1]
setGyroBiasEstimationEnabled
                        0x08068afb     0x18  Code  Gb  HeadTracker.o [1]
setHardwareRevision_string
                        0x0804c1df     0x42  Code  Gb  misc_data.o [1]
setHasCamera            0x0804c645     0x32  Code  Gb  misc_data.o [1]
setIdentityM            0x08068ee9     0x26  Code  Gb  Matrix.o [1]
setLensCenterLeftU      0x0804c961     0x44  Code  Gb  misc_data.o [1]
setLensCenterLeftV      0x0804ca1d     0x46  Code  Gb  misc_data.o [1]
setLensCenterRightU     0x0804cad9     0x46  Code  Gb  misc_data.o [1]
setLensCenterRightV     0x0804cb99     0x46  Code  Gb  misc_data.o [1]
setLensFocalLength      0x0804d795     0x48  Code  Gb  misc_data.o [1]
setMBSerialNumber       0x0804b9b5     0x3c  Code  Gb  misc_data.o [1]
setManufacturerName     0x0804c12b     0x42  Code  Gb  misc_data.o [1]
setModelName            0x0804b829     0x40  Code  Gb  misc_data.o [1]
setPolynomialCoeffsBlue
                        0x0804db13     0x38  Code  Gb  misc_data.o [1]
setPolynomialCoeffsGreen
                        0x0804daad     0x38  Code  Gb  misc_data.o [1]
setPolynomialCoeffsRed  0x0804da3d     0x38  Code  Gb  misc_data.o [1]
setProjectID            0x0804bc81     0x46  Code  Gb  misc_data.o [1]
setRealScreenSize       0x0804d9d5     0x24  Code  Gb  misc_data.o [1]
setRecommendedRenderTargetSize
                        0x0804d969     0x32  Code  Gb  misc_data.o [1]
setRenderOverfill       0x0804d8ed     0x48  Code  Gb  misc_data.o [1]
setRotateEuler3x3M      0x0806906d     0xb4  Code  Gb  Matrix.o [1]
setRotateEulerM         0x08068fa5     0xc4  Code  Gb  Matrix.o [1]
setScreenshotHorizontalFOV
                        0x0804d51d     0x48  Code  Gb  misc_data.o [1]
setScreenshotVerticalFOV
                        0x0804d5eb     0x48  Code  Gb  misc_data.o [1]
setSemiPara             0x0804bb6d     0x6e  Code  Gb  misc_data.o [1]
setSensorToHead         0x0804db87     0x38  Code  Gb  misc_data.o [1]
setSerialNumber         0x0804c05d     0x40  Code  Gb  misc_data.o [1]
setTrackingReset        0x08068abd     0x3c  Code  Gb  HeadTracker.o [1]
setTrackingSystemName   0x0804bf75     0x44  Code  Gb  misc_data.o [1]
setUserHeadToEyeDepthMeters
                        0x0804cc61     0x46  Code  Gb  misc_data.o [1]
setUserIpdMeters        0x0804c84d     0x42  Code  Gb  misc_data.o [1]
setVendorPartNumber     0x0804dbbf     0x44  Code  Gb  misc_data.o [1]
set_akm_calibrate       0x0804d30b     0x50  Code  Gb  misc_data.o [1]
set_bootmode            0x0804cdf1     0x34  Code  Gb  misc_data.o [1]
set_cert                0x080810ad     0x54  Code  Gb  akl_nonos_ext.o [1]
set_htc_cdc_srv_control
                        0x08048d99     0xa8  Code  Gb  htc_usb_cdc_data_service.o [1]
set_max_ret_size        0x080831bc      0x4  Data  Lc  ams361ep01_dsi_vdo.o [1]
set_pcbid               0x0804ce59     0x30  Code  Gb  misc_data.o [1]
set_ps_threshold        0x0804d23d     0x38  Code  Gb  misc_data.o [1]
set_runtype_fota        0x08072fd9      0xe  Code  Lc  fota_command.o [1]
set_runtype_normal      0x08072fe7      0xc  Code  Lc  fota_command.o [1]
set_skuid               0x0804b70f     0x32  Code  Gb  misc_data.o [1]
set_sys_cmd_serv_control
                        0x0806bf43     0x9c  Code  Gb  system_command.o [1]
set_sys_prop_serv_control
                        0x0806b6db     0x9c  Code  Gb  system_property.o [1]
set_usb_device_control  0x0806af35     0x80  Code  Gb  usb_device.o [1]
set_yas_calibrate       0x0804d3eb     0x4e  Code  Gb  misc_data.o [1]
setcProductDate         0x0804b8f1     0x3c  Code  Gb  misc_data.o [1]
setdwMFGAreaSignature   0x0804bd61     0x32  Code  Gb  misc_data.o [1]
shell_lsm6dsm_commad    0x08081c95    0x338  Code  Gb  gSensor_Command.o [1]
show_i2c_help           0x08041843      0x8  Code  Gb  command.o [1]
show_ioexp_help         0x08041379      0x8  Code  Gb  command.o [1]
show_led_help           0x08041155     0x16  Code  Gb  command.o [1]
show_mag_help           0x08042a5f     0x30  Code  Gb  command.o [1]
show_prox_help          0x08042e79     0x36  Code  Gb  command.o [1]
show_registers          0x08082471     0x58  Code  Lc  hlog_excep.o [1]
show_stacktrace         0x080823e9     0x88  Code  Lc  hlog_excep.o [1]
sinTable_f32            0x0806f064    0x804  Data  Gb  mymath.o [1]
single_read             0x0807b971     0x44  Code  Lc  yas_mag_drv-yas537.o [1]
sleep_in                0x080831e8      0x4  Data  Lc  ams361ep01_dsi_vdo.o [1]
snprintf                0x0804f38d     0x44  Code  Gb  snprintf.o [4]
solve                   0x0807a4a1    0x1b6  Code  Lc  yas_mag_calib_min.o [1]
source_ctrl             0x08083164      0x8  Data  Lc  ams361ep01_dsi_vdo.o [1]
spi_routine             0x08065dfd     0x24  Code  Gb  BMI160_ACC_GYRO_Driver.o [1]
sprintf                 0x08048985     0x34  Code  Gb  sprintf.o [4]
sqrt                    0x080706b5           Code  Gb  sqrt.o [5]
sqrt32                  0x0807a2b5     0xec  Code  Lc  yas_mag_calib_min.o [1]
sqrtl                   0x080706b5           Code  Gb  sqrt.o [5]
srand                   0x08070d15     0x20  Code  Gb  srand.o [4]
st2CRC                  0x0808195b    0x134  Code  Lc  AKDecomp.o [3]
startProximityTask      0x0805bbfd     0x4e  Code  Gb  proximity_task.o [1]
startTracking           0x08068a77     0x34  Code  Gb  HeadTracker.o [1]
start_up_init           0x0805492b     0x8c  Code  Lc  tc358870xbg_driver.o [1]
start_video_tx          0x080540cd     0x54  Code  Lc  tc358870xbg_driver.o [1]
start_yas537            0x0807b3ff     0x22  Code  Lc  yas_mag_drv-yas537.o [1]
static_matrix           0x20012a40     0x14  Data  Gb  YAS537_MAG_driver_HL.o [1]
stopTracking            0x08068aab     0x12  Code  Gb  HeadTracker.o [1]
stop_and_save           0x080802c5     0x40  Code  Gb  akl_lib_func.o [1]
strcasecmp              0x08070bed     0x46  Code  Gb  strcasecmp.o [4]
strchr                  0x080698c9           Code  Gb  strchr.o [6]
stress_reboot_timer_callback
                        0x0806c627     0x1e  Code  Lc  PowerManager_command.o [1]
string_copy             0x08080209     0x1c  Code  Lc  akl_lib_func.o [1]
strlen                  0x080489b9           Code  Gb  strlen.o [6]
strncasecmp             0x080472ad     0x4e  Code  Gb  strncasecmp.o [4]
strtoul                 0x0804e1d1      0x4  Code  Gb  strtoul.o [4]
sync_event_handle       0x0805418b    0x120  Code  Lc  tc358870xbg_driver.o [1]
sys_alloc               0x080573ef    0x38c  Code  Lc  dlmalloc.o [4]
sys_audio_cmd           0x0806ba83     0x8c  Code  Lc  system_command.o [1]
sys_cmd_pm_notify_func  0x0806bfdf     0x32  Code  Gb  system_command.o [1]
sys_cmd_set             0x0806c510     0x40  Data  Gb  system_command.o [1]
sys_display_cmd         0x0806bb0f     0x58  Code  Lc  system_command.o [1]
sys_ecompass_cmd        0x0806bb67    0x100  Code  Lc  system_command.o [1]
sys_led_cmd             0x0806bc6f     0xe0  Code  Lc  system_command.o [1]
sys_log_cmd             0x0806bd65     0x4e  Code  Lc  system_command.o [1]
sys_power_cmd           0x0806bdb3     0x62  Code  Lc  system_command.o [1]
sys_prop_pm_notify_func
                        0x0806b785     0x32  Code  Gb  system_property.o [1]
sys_sensor_fusion_cmd   0x0806ba6d     0x16  Code  Lc  system_command.o [1]
sys_system_cmd          0x0806be19     0x1e  Code  Lc  system_command.o [1]
system_command          0x0806becb     0x6c  Code  Gb  system_command.o [1]
system_command_init     0x0806c019     0xa0  Code  Gb  system_command.o [1]
system_property         0x0806b66f     0x6c  Code  Gb  system_property.o [1]
system_property_get     0x0806b241    0x3e6  Code  Lc  system_property.o [1]
system_property_init    0x0806b7bf     0x96  Code  Gb  system_property.o [1]
t_infoI2C               0x20022280     0x28  Data  Lc  rtos_i2c_drv.o [1]
tag_names               0x20012374     0x74  Data  Lc  hlog_main.o [1]
take_write_mutex        0x0804a01d     0x18  Code  Gb  misc_data.o [1]
tc358870_i2c_read16     0x08053265     0x42  Code  Lc  tc358870xbg_driver.o [1]
tc358870_i2c_read32     0x08053305     0x42  Code  Lc  tc358870xbg_driver.o [1]
tc358870_i2c_read8      0x080531c5     0x2c  Code  Lc  tc358870xbg_driver.o [1]
tc358870_i2c_write16    0x08053205     0x2e  Code  Lc  tc358870xbg_driver.o [1]
tc358870_i2c_write32    0x080532bd     0x30  Code  Lc  tc358870xbg_driver.o [1]
tc358870_i2c_write8     0x08053189     0x26  Code  Lc  tc358870xbg_driver.o [1]
test_gyro               0x08059325     0xf4  Code  Gb  gSensor_Calibate.o [1]
tmalloc_large           0x08057789    0x39a  Code  Lc  dlmalloc.o [4]
tmalloc_small           0x08057b23    0x210  Code  Lc  dlmalloc.o [4]
tmpfunc2                0x0807e2e3     0x12  Code  Lc  AKHDOE.o [3]
tolower                 0x0805d9c9     0x14  Code  Gb  tolower.o [4]
tracking_on             0x200225bd      0x1  Data  Gb  HeadTracker.o [1]
twom100                 0x20012bbc      0x4  Data  Lc  mymath.o [1]
ucHeap                  0x20012bec   0xc000  Data  Lc  heap_4.o [1]
ucMaxSysCallPriority    0x20012b88      0x1  Data  Lc  port.o [1]
ulMaxPRIGROUPValue      0x20012b90      0x4  Data  Lc  port.o [1]
ulTaskSwitchedInTime    0x20021788      0x4  Data  Lc  tasks.o [1]
updateCovariancesAfterMotion
                        0x0807017f     0x36  Code  Lc  OrientationEKF.o [1]
updateDt                0x08067c95     0x94  Code  Lc  fusion.o [1]
update_gamma_setting    0x0805547d     0x16  Code  Lc  ams361ep01_dsi_vdo.o [1]
update_intrvlr          0x0807b5cf     0x4a  Code  Lc  yas_mag_drv-yas537.o [1]
update_vendor_desctiptor_string
                        0x08072f05     0x3c  Code  Gb  usbd_desc.o [1]
usb_cdc_execute_command
                        0x08048a7f     0x3c  Code  Lc  htc_usb_cdc_data_service.o [1]
usb_cdc_handle_command  0x08048b5f    0x146  Code  Lc  htc_usb_cdc_data_service.o [1]
usb_cdc_handle_resp_string
                        0x08048abb     0xa4  Code  Lc  htc_usb_cdc_data_service.o [1]
usb_cdc_printf          0x08048a41     0x36  Code  Gb  htc_usb_cdc_data_service.o [1]
usb_cdc_receive_data    0x08048ce3     0x5c  Code  Gb  htc_usb_cdc_data_service.o [1]
usb_cdc_service_func    0x08048cc3     0x20  Code  Gb  htc_usb_cdc_data_service.o [1]
usb_cdc_service_init    0x08048e81     0xa0  Code  Gb  htc_usb_cdc_data_service.o [1]
usb_cdc_transmit_data   0x080489f1     0x50  Code  Gb  htc_usb_cdc_data_service.o [1]
usb_device_pm_notify_func
                        0x0806afb5     0x36  Code  Gb  usb_device.o [1]
usb_hub_oac_det_irq     0x0805ca17     0x2e  Code  Gb  periph_multiple_drv.o [1]
usb_hub_reset           0x0805c9c5     0x52  Code  Gb  periph_multiple_drv.o [1]
usb_shell_data_handler  0x08048d3f     0x5a  Code  Gb  htc_usb_cdc_data_service.o [1]
uwTick                  0x200225b0      0x4  Data  Gb  stm32f4xx_hal.o [1]
uxCriticalNesting       0x20012b8c      0x4  Data  Lc  port.o [1]
uxCurrentNumberOfTasks  0x20021760      0x4  Data  Lc  tasks.o [1]
uxListRemove            0x08064997     0x24  Code  Gb  list.o [1]
uxPendedTicks           0x20021770      0x4  Data  Lc  tasks.o [1]
uxSchedulerSuspended    0x20021784      0x4  Data  Lc  tasks.o [1]
uxTaskGetNumberOfTasks  0x08055bcd      0x8  Code  Gb  tasks.o [1]
uxTaskGetSystemState    0x08055bd5     0x6e  Code  Gb  tasks.o [1]
uxTaskNumber            0x2002177c      0x4  Data  Lc  tasks.o [1]
uxTasksDeleted          0x20021748      0x4  Data  Lc  tasks.o [1]
uxTopReadyPriority      0x20021768      0x4  Data  Lc  tasks.o [1]
v7m_exp_handler         0x08082d1d     0x64  Code  Gb  stm32f4xx_it.o [1]
vConfigureTimerForRunTimeStats
                        0x080649bd     0x5e  Code  Gb  freertos_trace.o [1]
vListInitialise         0x0806492d     0x1a  Code  Gb  list.o [1]
vListInitialiseItem     0x08064947      0x6  Code  Gb  list.o [1]
vListInsert             0x08064965     0x32  Code  Gb  list.o [1]
vListInsertEnd          0x0806494d     0x18  Code  Gb  list.o [1]
vPortEnableVFP          0x0806d971           Code  Gb  portasm.o [1]
vPortEnterCritical      0x08064829     0x32  Code  Gb  port.o [1]
vPortExitCritical       0x0806485b     0x24  Code  Gb  port.o [1]
vPortFree               0x08064d41     0x44  Code  Gb  heap_4.o [1]
vPortSetupTimerInterrupt
                        0x080648a5     0x18  Code  Wk  port.o [1]
vPortStartFirstTask     0x0806d959           Code  Gb  portasm.o [1]
vPortValidateInterruptPriority
                        0x080648bd     0x42  Code  Gb  port.o [1]
vPort_get_malloc_size   0x08064d93     0x1e  Code  Gb  heap_4.o [1]
vQueueAddToRegistry     0x0805904d     0x20  Code  Gb  queue.o [1]
vQueueDelete            0x08058f1d     0x1e  Code  Gb  queue.o [1]
vQueueUnregisterQueue   0x0805906d     0x1e  Code  Gb  queue.o [1]
vQueueWaitForMessageRestricted
                        0x08059095     0x40  Code  Gb  queue.o [1]
vTaskDelay              0x080558af     0x3e  Code  Gb  tasks.o [1]
vTaskDelayUntil         0x08055847     0x68  Code  Gb  tasks.o [1]
vTaskMissedYield        0x08055ee5      0x8  Code  Gb  tasks.o [1]
vTaskPlaceOnEventList   0x08055d6d     0x28  Code  Gb  tasks.o [1]
vTaskPlaceOnEventListRestricted
                        0x08055dc9     0x42  Code  Gb  tasks.o [1]
vTaskPriorityInherit    0x080560bb     0x70  Code  Gb  tasks.o [1]
vTaskResume             0x080559f7     0x4a  Code  Gb  tasks.o [1]
vTaskSetTimeOutState    0x08055e71     0x1e  Code  Gb  tasks.o [1]
vTaskStartScheduler     0x08055aab     0x66  Code  Gb  tasks.o [1]
vTaskSuspend            0x0805591f     0x50  Code  Gb  tasks.o [1]
vTaskSuspendAll         0x08055b19      0xc  Code  Gb  tasks.o [1]
vTaskSwitchContext      0x08055d0d     0x60  Code  Gb  tasks.o [1]
vTask_get_current_taskinfo
                        0x08055907     0x18  Code  Gb  tasks.o [1]
vec3Add                 0x08067a2d     0x2e  Code  Lc  fusion.o [1]
vec3Cross               0x08067b1b     0x52  Code  Lc  fusion.o [1]
vec3Dot                 0x08067aaf     0x26  Code  Lc  fusion.o [1]
vec3Norm                0x08067ad9      0xc  Code  Lc  fusion.o [1]
vec3NormSquared         0x08067ad5      0x4  Code  Lc  fusion.o [1]
vec3Normalize           0x08067ae5     0x36  Code  Lc  fusion.o [1]
vec3ScalarMul           0x08067a8d     0x22  Code  Lc  fusion.o [1]
vec3Sub                 0x08067a5b     0x2c  Code  Lc  fusion.o [1]
vector0                 0x0807b37c      0xc  Data  Lc  yas_mag_calib_min.o [1]
vendor_data_str         0x20020944     0x20  Data  Lc  usbd_desc.o [1]
version_string          0x08040fc0     0x10  Data  Gb  sys_header.o [1]
vsnprintf               0x08060141     0x3c  Code  Gb  vsnprint.o [4]
vsprintf                0x08082775     0x2c  Code  Gb  vsprintf.o [4]
wait_150ms              0x080831b0      0x4  Data  Lc  ams361ep01_dsi_vdo.o [1]
wait_30ms               0x080831f0      0x4  Data  Lc  ams361ep01_dsi_vdo.o [1]
wait_40ms               0x080831ec      0x4  Data  Lc  ams361ep01_dsi_vdo.o [1]
wait_50ms               0x080831e4      0x4  Data  Lc  ams361ep01_dsi_vdo.o [1]
wait_5ms                0x080831dc      0x4  Data  Lc  ams361ep01_dsi_vdo.o [1]
wait_dcs_queue          0x08053397     0x7c  Code  Lc  tc358870xbg_driver.o [1]
wakeup_source           0x20022504      0x4  Data  Gb  PowerManager_power.o [1]
watchdog_init           0x0806020f     0x20  Code  Gb  main.o [1]
watchdog_refresh        0x0806022f      0xe  Code  Gb  main.o [1]
watchdog_task           0x080601dd     0x32  Code  Lc  main.o [1]
watchdog_th             0x200225a4      0x4  Data  Gb  main.o [1]
whiteSpace              0x0804650c      0x8  Data  Gb  command.o [1]
write_args              0x08055375     0x4c  Code  Lc  ams361ep01_dsi_vdo.o [1]
write_gamma_setting     0x080556fc     0x20  Data  Lc  ams361ep01_dsi_vdo.o [1]
write_h2d_reg_item      0x080547f7     0x52  Code  Lc  tc358870xbg_driver.o [1]
xActiveTimerList1       0x20022224     0x14  Data  Lc  timers.o [1]
xActiveTimerList2       0x20022238     0x14  Data  Lc  timers.o [1]
xBlockAllocatedBit      0x20012be8      0x4  Data  Lc  heap_4.o [1]
xDelayedTaskList1       0x2002178c     0x14  Data  Lc  tasks.o [1]
xDelayedTaskList2       0x200217a0     0x14  Data  Lc  tasks.o [1]
xFreeBytesRemaining     0x20012be0      0x4  Data  Lc  heap_4.o [1]
xMinimumEverFreeBytesRemaining
                        0x20012be4      0x4  Data  Lc  heap_4.o [1]
xNextTaskUnblockTime    0x20021780      0x4  Data  Lc  tasks.o [1]
xNumOfOverflows         0x20021778      0x4  Data  Lc  tasks.o [1]
xPendingReadyList       0x20021714     0x14  Data  Lc  tasks.o [1]
xPortStartScheduler     0x08064791     0x84  Code  Gb  port.o [1]
xPortSysTickHandler     0x0806487f     0x26  Code  Gb  port.o [1]
xProximityTaskWoken     0x2002251c      0x4  Data  Gb  proximity_task.o [1]
xQueueCreateMutex       0x08058aab     0x52  Code  Gb  queue.o [1]
xQueueGenericCreate     0x08058a4f     0x5c  Code  Gb  queue.o [1]
xQueueGenericReceive    0x08058d53    0x128  Code  Gb  queue.o [1]
xQueueGenericReset      0x080589d9     0x76  Code  Gb  queue.o [1]
xQueueGenericSend       0x08058afd    0x12c  Code  Gb  queue.o [1]
xQueueGenericSendFromISR
                        0x08058c29     0x9c  Code  Gb  queue.o [1]
xQueueGiveFromISR       0x08058cc5     0x86  Code  Gb  queue.o [1]
xQueueIsQueueFullFromISR
                        0x0805902b     0x22  Code  Gb  queue.o [1]
xQueueReceiveFromISR    0x08058e99     0x74  Code  Gb  queue.o [1]
xQueueRegistry          0x20022158     0x40  Data  Gb  queue.o [1]
xSchedulerRunning       0x2002176c      0x4  Data  Lc  tasks.o [1]
xSensorTaskWoken        0x200224e0      0x4  Data  Gb  sensor_task.o [1]
xSpi2SemaphoreMutex     0x20012bb4      0x4  Data  Lc  BMI160_ACC_GYRO_Driver_HL.o [1]
xStart                  0x20012bd4      0x8  Data  Lc  heap_4.o [1]
xSuspendedTaskList      0x2002174c     0x14  Data  Lc  tasks.o [1]
xTaskCheckForTimeOut    0x08055e8f     0x4e  Code  Gb  tasks.o [1]
xTaskGenericCreate      0x0805571d    0x12a  Code  Gb  tasks.o [1]
xTaskGenericNotify      0x080562ab     0xaa  Code  Gb  tasks.o [1]
xTaskGenericNotifyFromISR
                        0x08056377     0xca  Code  Gb  tasks.o [1]
xTaskGetSchedulerState  0x080560a5     0x16  Code  Gb  tasks.o [1]
xTaskGetTickCount       0x08055bb7      0x8  Code  Gb  tasks.o [1]
xTaskGetTickCountFromISR
                        0x08055bbf      0xe  Code  Gb  tasks.o [1]
xTaskIncrementTick      0x08055c4b     0xb8  Code  Gb  tasks.o [1]
xTaskNotifyWait         0x080561f5     0x98  Code  Gb  tasks.o [1]
xTaskPriorityDisinherit
                        0x0805612b     0x7a  Code  Gb  tasks.o [1]
xTaskRemoveFromEventList
                        0x08055e0b     0x58  Code  Gb  tasks.o [1]
xTaskResumeAll          0x08055b25     0x92  Code  Gb  tasks.o [1]
xTaskResumeFromISR      0x08055a41     0x6a  Code  Gb  tasks.o [1]
xTasksWaitingTermination
                        0x20021728     0x14  Data  Lc  tasks.o [1]
xTickCount              0x20021764      0x4  Data  Lc  tasks.o [1]
xTimerCreate            0x08061139     0x3c  Code  Gb  timers.o [1]
xTimerCreateTimerTask   0x08061101     0x38  Code  Gb  timers.o [1]
xTimerGenericCommand    0x08061175     0x50  Code  Gb  timers.o [1]
xTimerQueue             0x2002221c      0x4  Data  Lc  timers.o [1]
xYieldPending           0x20021774      0x4  Data  Lc  tasks.o [1]
xdown_x                 0x20021fd0      0x4  Data  Gb  gSensor_Calibate.o [1]
xdown_y                 0x20021fd4      0x4  Data  Gb  gSensor_Calibate.o [1]
xdown_z                 0x20021fd8      0x4  Data  Gb  gSensor_Calibate.o [1]
xup_x                   0x20021fc4      0x4  Data  Gb  gSensor_Calibate.o [1]
xup_y                   0x20021fc8      0x4  Data  Gb  gSensor_Calibate.o [1]
xup_z                   0x20021fcc      0x4  Data  Gb  gSensor_Calibate.o [1]
xy1y2_to_xyz            0x0807b9cd     0x32  Code  Lc  yas_mag_drv-yas537.o [1]
yas_adap_filter_init    0x0807d2e5     0x28  Code  Lc  yas_mag_filter.o [1]
yas_adap_filter_update  0x0807d245     0xa0  Code  Lc  yas_mag_filter.o [1]
yas_algo_init           0x0807d1d3     0x50  Code  Gb  yas_algo.o [1]
yas_algo_set_calib_enable
                        0x0807d081     0x28  Code  Gb  yas_algo.o [1]
yas_algo_set_filter_enable
                        0x0807d0af     0x3e  Code  Gb  yas_algo.o [1]
yas_algo_set_state      0x0807d04d     0x34  Code  Gb  yas_algo.o [1]
yas_algo_term           0x0807d223     0x1c  Code  Gb  yas_algo.o [1]
yas_algo_update         0x0807d0f3     0xe0  Code  Gb  yas_algo.o [1]
yas_cdrv_sensitivity_measuremnet
                        0x0807b9ff     0xf0  Code  Lc  yas_mag_drv-yas537.o [1]
yas_device_close        0x0807c261      0x4  Code  Lc  YAS537_MAG_driver_HL.o [1]
yas_device_current_time
                        0x0807c2c3      0x4  Code  Lc  YAS537_MAG_driver_HL.o [1]
yas_device_open         0x0807c25d      0x4  Code  Lc  YAS537_MAG_driver_HL.o [1]
yas_device_read         0x0807c285     0x20  Code  Lc  YAS537_MAG_driver_HL.o [1]
yas_device_usleep       0x0807c2c7      0xe  Code  Lc  YAS537_MAG_driver_HL.o [1]
yas_device_write        0x0807c265     0x20  Code  Lc  YAS537_MAG_driver_HL.o [1]
yas_driver_ext          0x0807cfc5     0x22  Code  Gb  yas_drv.o [1]
yas_driver_get_delay    0x0807cf33     0x12  Code  Gb  yas_drv.o [1]
yas_driver_init         0x0807cfe7     0x54  Code  Gb  yas_drv.o [1]
yas_driver_measure      0x0807cf93     0x32  Code  Gb  yas_drv.o [1]
yas_driver_set_delay    0x0807cf51     0x1e  Code  Gb  yas_drv.o [1]
yas_driver_set_enable   0x0807cf15     0x1e  Code  Gb  yas_drv.o [1]
yas_driver_set_position
                        0x0807cf75     0x1e  Code  Gb  yas_drv.o [1]
yas_ext                 0x0807be3d    0x21e  Code  Lc  yas_mag_drv-yas537.o [1]
yas_get_config          0x0807b24b     0x1c  Code  Lc  yas_mag_calib_min.o [1]
yas_get_config          0x0807d38b     0x24  Code  Lc  yas_mag_filter.o [1]
yas_get_delay           0x0807bd51      0xe  Code  Lc  yas_mag_drv-yas537.o [1]
yas_get_enable          0x0807bd93      0xe  Code  Lc  yas_mag_drv-yas537.o [1]
yas_get_offset          0x0807b045     0x2a  Code  Lc  yas_mag_calib_min.o [1]
yas_get_position        0x0807bafb      0xe  Code  Lc  yas_mag_drv-yas537.o [1]
yas_get_result          0x0807b2c9     0x1c  Code  Lc  yas_mag_calib_min.o [1]
yas_init                0x0807b1bb     0x7c  Code  Lc  yas_mag_calib_min.o [1]
yas_init                0x0807c061     0xd8  Code  Lc  yas_mag_drv-yas537.o [1]
yas_init                0x0807d3ff     0x4e  Code  Lc  yas_mag_filter.o [1]
yas_mag_calib_init      0x0807b321     0x34  Code  Gb  yas_mag_calib_min.o [1]
yas_mag_driver_init     0x0807c157     0x64  Code  Gb  yas_mag_drv-yas537.o [1]
yas_mag_filter_init     0x0807d499     0x2a  Code  Gb  yas_mag_filter.o [1]
yas_measure             0x0807bb3b    0x20c  Code  Lc  yas_mag_drv-yas537.o [1]
yas_measure_wrap        0x0807bd47      0xa  Code  Lc  yas_mag_drv-yas537.o [1]
yas_nv_data             0x20012a28     0x14  Data  Lc  YAS537_MAG_driver_HL.o [1]
yas_open                0x0807b3b5     0x1e  Code  Lc  yas_mag_drv-yas537.o [1]
yas_reset               0x0807b2f1     0x30  Code  Lc  yas_mag_calib_min.o [1]
yas_reset               0x0807d46b     0x2e  Code  Lc  yas_mag_filter.o [1]
yas_set_config          0x0807b267     0x62  Code  Lc  yas_mag_calib_min.o [1]
yas_set_config          0x0807d3af     0x50  Code  Lc  yas_mag_filter.o [1]
yas_set_delay           0x0807bd5f     0x34  Code  Lc  yas_mag_drv-yas537.o [1]
yas_set_enable          0x0807be37      0x4  Code  Lc  yas_mag_drv-yas537.o [1]
yas_set_enable_wrap     0x0807bda1     0x86  Code  Lc  yas_mag_drv-yas537.o [1]
yas_set_offset          0x0807b06f     0x44  Code  Lc  yas_mag_calib_min.o [1]
yas_set_position        0x0807bb09     0x2c  Code  Lc  yas_mag_drv-yas537.o [1]
yas_single_write        0x0807b3db     0x14  Code  Lc  yas_mag_drv-yas537.o [1]
yas_term                0x0807b237     0x14  Code  Lc  yas_mag_calib_min.o [1]
yas_term                0x0807c139     0x14  Code  Lc  yas_mag_drv-yas537.o [1]
yas_term                0x0807d453     0x18  Code  Lc  yas_mag_filter.o [1]
yas_thresh_filter_init  0x0807d30d      0xa  Code  Lc  yas_mag_filter.o [1]
yas_update              0x0807b0c5     0xe4  Code  Lc  yas_mag_calib_min.o [1]
yas_update              0x0807d317     0x74  Code  Lc  yas_mag_filter.o [1]
ydown_x                 0x20021fe8      0x4  Data  Gb  gSensor_Calibate.o [1]
ydown_y                 0x20021fec      0x4  Data  Gb  gSensor_Calibate.o [1]
ydown_z                 0x20021ff0      0x4  Data  Gb  gSensor_Calibate.o [1]
yup_x                   0x20021fdc      0x4  Data  Gb  gSensor_Calibate.o [1]
yup_y                   0x20021fe0      0x4  Data  Gb  gSensor_Calibate.o [1]
yup_z                   0x20021fe4      0x4  Data  Gb  gSensor_Calibate.o [1]
zdown_x                 0x20022000      0x4  Data  Gb  gSensor_Calibate.o [1]
zdown_y                 0x20022004      0x4  Data  Gb  gSensor_Calibate.o [1]
zdown_z                 0x20022008      0x4  Data  Gb  gSensor_Calibate.o [1]
zup_x                   0x20021ff4      0x4  Data  Gb  gSensor_Calibate.o [1]
zup_y                   0x20021ff8      0x4  Data  Gb  gSensor_Calibate.o [1]
zup_z                   0x20021ffc      0x4  Data  Gb  gSensor_Calibate.o [1]
zzAKSC_HDOEProcessS3    0x0807e31f    0x2b2  Code  Gb  AKHDOE.o [3]
zzAKSC_InitHDOEProcPrmsS3
                        0x0807e2f5     0x2a  Code  Gb  AKHDOE.o [3]


[1] = G:\code\STM32\Kalman\link_hmd\SYS\EWARM\Debug\Obj
[2] = command line
[3] = ak09916_lib.a
[4] = dl7M_tlf.a
[5] = m7M_tlv.a
[6] = rt7M_tl.a
[7] = shb_l.a

  249 978 bytes of readonly  code memory
   24 166 bytes of readonly  data memory (+ 64     absolute)
   76 714 bytes of readwrite data memory (+ 65 556 absolute)

Errors: none
Warnings: none
